
                   J E S 2  J O B  L O G  --  S Y S T E M  8 5 6 1  --  N O D E  S V S C J E S 2        

 
00.29.18 JOB08827 ---- WEDNESDAY, 06 DEC 2023 ----
00.29.18 JOB08827  IRR010I  USERID KC03C60  IS ASSIGNED TO THIS JOB.
00.29.20 JOB08827  ICH70001I KC03C60  LAST ACCESS AT 00:28:56 ON WEDNESDAY, DECEMBER 6, 2023
00.29.20 JOB08827  $HASP373 KC03C60A STARTED - INIT 1    - CLASS A        - SYS 8561
00.29.23 JOB08827  -                                      -----TIMINGS (MINS.)------                          -----PAGING COUNTS----
00.29.23 JOB08827  -STEPNAME PROCSTEP    RC   EXCP   CONN       TCB       SRB  CLOCK          SERV  WORKLOAD  PAGE  SWAP   VIO SWAPS
00.29.23 JOB08827  -JSTEP01              00    215     41       .00       .00     .0            19  BATCH        0     0     0     0
00.29.23 JOB08827  -JSTEP02              00     62      3       .00       .00     .0             5  BATCH        0     0     0     0
00.29.24 JOB08827  -JSTEP03              00     61      4       .00       .00     .0             7  BATCH        0     0     0     0
00.29.24 JOB08827  -KC03C60A ENDED.  NAME-M.Rasmussen          TOTAL TCB CPU TIME=      .00 TOTAL ELAPSED TIME=    .0
00.29.24 JOB08827  $HASP395 KC03C60A ENDED - RC=0000

------ JES2 JOB STATISTICS ------


  06 DEC 2023 JOB EXECUTION DATE


          668 CARDS READ


        1,834 SYSOUT PRINT RECORDS


            0 SYSOUT PUNCH RECORDS


          161 SYSOUT SPOOL KBYTES


         0.09 MINUTES EXECUTION TIME
       1 //KC03C60A JOB ,'M.Rasmussen',MSGCLASS=H                                JOB08827
         //*                                                                             
         //*****************************************************************             
         //*  CSCI 465               ASSIGNMENT 6                Fall 2023 *             
         //*                                                               *             
         //*  DEVELOPER NAME: MIKE RASMUSSEN                               *             
         //*        DUE DATE: 11/29/23                                     *             
         //*                                                               *             
         //*  PURPOSE: THIS PROGRAM WILL READ IN DATA FROM A RECORD AND    *             
         //*  PROCESS IT. IT THEN CALCULATES AND OUTPUTS THE DATA INTO 2   *             
         //*  REPORTS. IT USES THE SAME CODE FROM THE PREVIOUS ASSIGNMENT  *             
         //*  TO COMPILE, BIND AND FETCH THE COBOL PROGRAM.                *             
         //*                                                               *             
         //*****************************************************************             
         //*                                                                             
       2 //JSTEP01  EXEC PGM=ASMA90,PARM=ASA,COND=(0,LT)                                 
         //*                                                                             
         //*                                                                             
         //*****************************************************************             
         //*                                                               *             
         //* JSTEP01 COMPILES THE COBOL PROGRAM USING THE COBOL COMPILER   *             
         //*                                                               *             
         //* DDNAME    IN/OUT FILE DESCRIPTION                             *             
         //*                                                               *             
         //* STEPLIB   INPUT  INDICATES WHERE THE COBOL COMPILER IS STORED *             
         //* SYSIN     INPUT  COBOL PROGRAM TO BE COMPILED                 *             
         //*                                                               *             
         //* SYSLIN    OUTPUT INDICATES WHERE THE TEMP OBJECT MODULE IS    *             
         //*                  STORED                                       *             
         //* SYSUT1-15 OUTPUT TEMPORARY WORK DATA SETS USED DURING         *             
         //*                  COMPILATION                                  *             
         //* SYSPRINT  OUTPUT INDICATES THE DATA SET WHERE THE SOURCE      *             
         //*                  LISTING AND MESSAGES ARE TO BE WRITTEN       *             
         //* SYSMDECK  OUTPUT INDICATES A DATA SET THAT WILL CONTAIN A     *             
         //*                  COPY OF THE UPDATED INPUT AFTER PROCESSING   *             
         //*                                                               *             
         //*****************************************************************             
         //*                                                                             
       3 //SYSLIB   DD DSN=SYS1.MACLIB,DISP=SHR                                          
         //*                                                                             
       4 //SYSIN    DD *                                                                 
         //*                                                                             
       5 //SYSLIN   DD DSN=&&OBJMOD,SPACE=(CYL,(1,1)),DISP=(MOD,PASS)                    
         //*                                                                             
       6 //SYSUT1   DD SPACE=(CYL,(1,1))                                                 
       7 //SYSUT2   DD SPACE=(CYL,(1,1))                                                 
       8 //SYSUT3   DD SPACE=(CYL,(1,1))                                                 
       9 //SYSUT4   DD SPACE=(CYL,(1,1))                                                 
      10 //SYSUT5   DD SPACE=(CYL,(1,1))                                                 
      11 //SYSUT6   DD SPACE=(CYL,(1,1))                                                 
      12 //SYSUT7   DD SPACE=(CYL,(1,1))                                                 
      13 //SYSUT8   DD SPACE=(CYL,(1,1))                                                 
      14 //SYSUT9   DD SPACE=(CYL,(1,1))                                                 
      15 //SYSUT10  DD SPACE=(CYL,(1,1))                                                 
      16 //SYSUT11  DD SPACE=(CYL,(1,1))                                                 
      17 //SYSUT12  DD SPACE=(CYL,(1,1))                                                 
      18 //SYSUT13  DD SPACE=(CYL,(1,1))                                                 
      19 //SYSUT14  DD SPACE=(CYL,(1,1))                                                 
      20 //SYSUT15  DD SPACE=(CYL,(1,1))                                                 
         //*                                                                             
      21 //SYSPRINT DD SYSOUT=*                                                          
         //*                                                                             
      22 //SYSMDECK DD SPACE=(CYL,(1,1))                                                 
         //*                                                                             
      23 //JSTEP02  EXEC PGM=IEWBLINK,COND=(0,LT)                                        
         //*                                                                             
         //*****************************************************************             
         //*                                                               *             
         //* JSTEP02 BINDS THE PROGRAM                                     *             
         //*                                                               *             
         //* DDNAME    IN/OUT FILE DESCRIPTION                             *             
         //*                                                               *             
         //* SYSLIB    INPUT  INDICATES WHERE THE BINDER IS STORED         *             
         //* SYSIN     INPUT  THE OBJECT MODULE TO BE BINDED               *             
         //*                                                               *             
         //* SYSLMOD   OUTPUT PROGRAM OBJECT CREATED BY THE BINDER         *             
         //* SYSPRINT  OUTPUT MESSAGES FROM THE BINDER                     *             
         //*                                                               *             
         //*****************************************************************             
         //*                                                                             
      24 //SYSLIB   DD DSN=CEE.SCEELKED,DISP=SHR                                         
         //*                                                                             
      25 //SYSLIN   DD DSN=&&OBJMOD,DISP=(OLD,DELETE)                                    
      26 //         DD *                                                                 
         //*                                                                             
      27 //SYSLMOD  DD DSN=KC03C60.CSCI465.LOADLIB(SALESRPT),                            
         //            SPACE=(1024,(50,20,1)),DSNTYPE=LIBRARY,                           
         //            DISP=(MOD,KEEP,KEEP)                                              
         //*                                                                             
      28 //SYSPRINT DD SYSOUT=*                                                          
         //*                                                                             
      29 //JSTEP03  EXEC PGM=SALESRPT,COND=(0,LT)                                        
         //*                                                                             
         //*****************************************************************             
         //*                                                               *             
         //* JSTEP03 BINDS THE PROGRAM                                     *             
         //*                                                               *             
         //* DDNAME    IN/OUT FILE DESCRIPTION                             *             
         //*                                                               *             
         //* SYSLIB    INPUT  INDICATES WHERE THE PROGRAM OBJ IS STORED    *             
         //* SALESFLE  INPUT  THE PROGRAM OBJ THAT WILL BE EXECUTED        *             
         //*                                                               *             
         //* RPTFLE    OUTPUT STANDARD OUTPUT                              *             
         //* SYSUDUMP  OUTPUT SYSTEM DUMP IF ABEND                         *             
         //*                                                               *             
         //*****************************************************************             
         //*                                                                             
      30 //STEPLIB  DD DSN=KC03C60.CSCI465.LOADLIB,DISP=SHR                              
      31 //         DD DSN=KC02322.CSCI465.LOADLIB,DISP=SHR                              
         //*                                                                             
      32 //INDATA   DD DSN=KC02322.CSCI465.DATAFA23(DATA6),DISP=SHR                      
      33 //HSFLE    DD SPACE=(TRK,(1,1))                                                 
      34 //RPTDATA  DD SYSOUT=*                                                          
      35 //PRINTOUT DD SYSOUT=*                                                          
      36 //SYSUDUMP DD SYSOUT=*                                                          
ICH70001I KC03C60  LAST ACCESS AT 00:28:56 ON WEDNESDAY, DECEMBER 6, 2023
IEFA111I KC03C60A IS USING THE FOLLOWING JOB RELATED SETTINGS:
         SWA=ABOVE,TIOT SIZE=32K,DSENQSHR=DISALLOW,GDGBIAS=JOB
IEF236I ALLOC. FOR KC03C60A JSTEP01
IEF237I 1001 ALLOCATED TO SYSLIB
IEF237I JES2 ALLOCATED TO SYSIN
IGD101I SMS ALLOCATED TO DDNAME (SYSLIN  )
        DSN (SYS23340.T002918.RA000.KC03C60A.OBJMOD.H01  )
        STORCLAS (TEMPSC) MGMTCLAS (        ) DATACLAS (        )
        VOL SER NOS= KCTR01                                                                
IGD101I SMS ALLOCATED TO DDNAME (SYSUT1  )
        DSN (SYS23340.T002918.RA000.KC03C60A.R0114107    )
        STORCLAS (TEMPSC) MGMTCLAS (        ) DATACLAS (        )
        VOL SER NOS= KCTR01                                                                
IGD101I SMS ALLOCATED TO DDNAME (SYSUT2  )
        DSN (SYS23340.T002918.RA000.KC03C60A.R0114108    )
        STORCLAS (TEMPSC) MGMTCLAS (        ) DATACLAS (        )
        VOL SER NOS= KCTR01                                                                
IGD101I SMS ALLOCATED TO DDNAME (SYSUT3  )
        DSN (SYS23340.T002918.RA000.KC03C60A.R0114109    )
        STORCLAS (TEMPSC) MGMTCLAS (        ) DATACLAS (        )
        VOL SER NOS= KCTR01                                                                
IGD101I SMS ALLOCATED TO DDNAME (SYSUT4  )
        DSN (SYS23340.T002918.RA000.KC03C60A.R0114110    )
        STORCLAS (TEMPSC) MGMTCLAS (        ) DATACLAS (        )
        VOL SER NOS= KCTR01                                                                
IGD101I SMS ALLOCATED TO DDNAME (SYSUT5  )
        DSN (SYS23340.T002918.RA000.KC03C60A.R0114111    )
        STORCLAS (TEMPSC) MGMTCLAS (        ) DATACLAS (        )
        VOL SER NOS= KCTR01                                                                
IGD101I SMS ALLOCATED TO DDNAME (SYSUT6  )
        DSN (SYS23340.T002918.RA000.KC03C60A.R0114112    )
        STORCLAS (TEMPSC) MGMTCLAS (        ) DATACLAS (        )
        VOL SER NOS= KCTR01                                                                
IGD101I SMS ALLOCATED TO DDNAME (SYSUT7  )
        DSN (SYS23340.T002918.RA000.KC03C60A.R0114113    )
        STORCLAS (TEMPSC) MGMTCLAS (        ) DATACLAS (        )
        VOL SER NOS= KCTR01                                                                
IGD101I SMS ALLOCATED TO DDNAME (SYSUT8  )
        DSN (SYS23340.T002918.RA000.KC03C60A.R0114114    )
        STORCLAS (TEMPSC) MGMTCLAS (        ) DATACLAS (        )
        VOL SER NOS= KCTR01                                                                
IGD101I SMS ALLOCATED TO DDNAME (SYSUT9  )
        DSN (SYS23340.T002918.RA000.KC03C60A.R0114115    )
        STORCLAS (TEMPSC) MGMTCLAS (        ) DATACLAS (        )
        VOL SER NOS= KCTR01                                                                
IGD101I SMS ALLOCATED TO DDNAME (SYSUT10 )
        DSN (SYS23340.T002918.RA000.KC03C60A.R0114116    )
        STORCLAS (TEMPSC) MGMTCLAS (        ) DATACLAS (        )
        VOL SER NOS= KCTR01                                                                
IGD101I SMS ALLOCATED TO DDNAME (SYSUT11 )
        DSN (SYS23340.T002918.RA000.KC03C60A.R0114117    )
        STORCLAS (TEMPSC) MGMTCLAS (        ) DATACLAS (        )
        VOL SER NOS= KCTR01                                                                
IGD101I SMS ALLOCATED TO DDNAME (SYSUT12 )
        DSN (SYS23340.T002918.RA000.KC03C60A.R0114118    )
        STORCLAS (TEMPSC) MGMTCLAS (        ) DATACLAS (        )
        VOL SER NOS= KCTR01                                                                
IGD101I SMS ALLOCATED TO DDNAME (SYSUT13 )
        DSN (SYS23340.T002918.RA000.KC03C60A.R0114119    )
        STORCLAS (TEMPSC) MGMTCLAS (        ) DATACLAS (        )
        VOL SER NOS= KCTR01                                                                
IGD101I SMS ALLOCATED TO DDNAME (SYSUT14 )
        DSN (SYS23340.T002918.RA000.KC03C60A.R0114120    )
        STORCLAS (TEMPSC) MGMTCLAS (        ) DATACLAS (        )
        VOL SER NOS= KCTR01                                                                
IGD101I SMS ALLOCATED TO DDNAME (SYSUT15 )
        DSN (SYS23340.T002918.RA000.KC03C60A.R0114121    )
        STORCLAS (TEMPSC) MGMTCLAS (        ) DATACLAS (        )
        VOL SER NOS= KCTR01                                                                
IEF237I JES2 ALLOCATED TO SYSPRINT
IGD101I SMS ALLOCATED TO DDNAME (SYSMDECK)
        DSN (SYS23340.T002918.RA000.KC03C60A.R0114122    )
        STORCLAS (TEMPSC) MGMTCLAS (        ) DATACLAS (        )
        VOL SER NOS= KCTR01                                                                
IEF142I KC03C60A JSTEP01 - STEP WAS EXECUTED - COND CODE 0000
IEF285I   SYS1.MACLIB                                  KEPT          
IEF285I   VOL SER NOS= VTMVSC.                            
IEF285I   KC03C60.KC03C60A.JOB08827.D0000101.?         SYSIN         
IGD106I SYS23340.T002918.RA000.KC03C60A.OBJMOD.H01   PASSED,    DDNAME=SYSLIN  
IGD105I SYS23340.T002918.RA000.KC03C60A.R0114107     DELETED,   DDNAME=SYSUT1  
IGD105I SYS23340.T002918.RA000.KC03C60A.R0114108     DELETED,   DDNAME=SYSUT2  
IGD105I SYS23340.T002918.RA000.KC03C60A.R0114109     DELETED,   DDNAME=SYSUT3  
IGD105I SYS23340.T002918.RA000.KC03C60A.R0114110     DELETED,   DDNAME=SYSUT4  
IGD105I SYS23340.T002918.RA000.KC03C60A.R0114111     DELETED,   DDNAME=SYSUT5  
IGD105I SYS23340.T002918.RA000.KC03C60A.R0114112     DELETED,   DDNAME=SYSUT6  
IGD105I SYS23340.T002918.RA000.KC03C60A.R0114113     DELETED,   DDNAME=SYSUT7  
IGD105I SYS23340.T002918.RA000.KC03C60A.R0114114     DELETED,   DDNAME=SYSUT8  
IGD105I SYS23340.T002918.RA000.KC03C60A.R0114115     DELETED,   DDNAME=SYSUT9  
IGD105I SYS23340.T002918.RA000.KC03C60A.R0114116     DELETED,   DDNAME=SYSUT10 
IGD105I SYS23340.T002918.RA000.KC03C60A.R0114117     DELETED,   DDNAME=SYSUT11 
IGD105I SYS23340.T002918.RA000.KC03C60A.R0114118     DELETED,   DDNAME=SYSUT12 
IGD105I SYS23340.T002918.RA000.KC03C60A.R0114119     DELETED,   DDNAME=SYSUT13 
IGD105I SYS23340.T002918.RA000.KC03C60A.R0114120     DELETED,   DDNAME=SYSUT14 
IGD105I SYS23340.T002918.RA000.KC03C60A.R0114121     DELETED,   DDNAME=SYSUT15 
IEF285I   KC03C60.KC03C60A.JOB08827.D0000103.?         SYSOUT        
IGD105I SYS23340.T002918.RA000.KC03C60A.R0114122     DELETED,   DDNAME=SYSMDECK
IEF373I STEP/JSTEP01 /START 2023340.0029
IEF032I STEP/JSTEP01 /STOP  2023340.0029 
        CPU:     0 HR  00 MIN  00.01 SEC    SRB:     0 HR  00 MIN  00.00 SEC    
        VIRT:   208K  SYS:   276K  EXT:    32768K  SYS:    11328K
        ATB- REAL:                  1280K  SLOTS:                     0K
             VIRT- ALLOC:      19M SHRD:       0M
IEF236I ALLOC. FOR KC03C60A JSTEP02
IEF237I 1001 ALLOCATED TO SYSLIB
IGD103I SMS ALLOCATED TO DDNAME SYSLIN
IEF237I JES2 ALLOCATED TO 
IGD103I SMS ALLOCATED TO DDNAME SYSLMOD
IEF237I JES2 ALLOCATED TO SYSPRINT
IEF142I KC03C60A JSTEP02 - STEP WAS EXECUTED - COND CODE 0000
IEF285I   CEE.SCEELKED                                 KEPT          
IEF285I   VOL SER NOS= VTMVSC.                            
IGD105I SYS23340.T002918.RA000.KC03C60A.OBJMOD.H01   DELETED,   DDNAME=SYSLIN  
IEF285I   KC03C60.KC03C60A.JOB08827.D0000102.?         SYSIN         
IGD104I KC03C60.CSCI465.LOADLIB                      RETAINED,  DDNAME=SYSLMOD 
IEF285I   KC03C60.KC03C60A.JOB08827.D0000104.?         SYSOUT        
IEF373I STEP/JSTEP02 /START 2023340.0029
IEF032I STEP/JSTEP02 /STOP  2023340.0029 
        CPU:     0 HR  00 MIN  00.00 SEC    SRB:     0 HR  00 MIN  00.00 SEC    
        VIRT:   144K  SYS:   276K  EXT:     1640K  SYS:    11260K
        ATB- REAL:                  1280K  SLOTS:                     0K
             VIRT- ALLOC:      18M SHRD:       0M
IEF236I ALLOC. FOR KC03C60A JSTEP03
IGD103I SMS ALLOCATED TO DDNAME STEPLIB
IGD103I SMS ALLOCATED TO DDNAME
IGD103I SMS ALLOCATED TO DDNAME INDATA
IGD101I SMS ALLOCATED TO DDNAME (HSFLE   )
        DSN (SYS23340.T002918.RA000.KC03C60A.R0114123    )
        STORCLAS (TEMPSC) MGMTCLAS (        ) DATACLAS (        )
        VOL SER NOS= KCTR01                                                                
IEF237I JES2 ALLOCATED TO RPTDATA
IEF237I JES2 ALLOCATED TO PRINTOUT
IEF237I JES2 ALLOCATED TO SYSUDUMP
IEF142I KC03C60A JSTEP03 - STEP WAS EXECUTED - COND CODE 0000
IGD104I KC03C60.CSCI465.LOADLIB                      RETAINED,  DDNAME=STEPLIB 
IGD104I KC02322.CSCI465.LOADLIB                      RETAINED,  DDNAME=        
IGD104I KC02322.CSCI465.DATAFA23                     RETAINED,  DDNAME=INDATA  
IGD105I SYS23340.T002918.RA000.KC03C60A.R0114123     DELETED,   DDNAME=HSFLE   
IEF285I   KC03C60.KC03C60A.JOB08827.D0000105.?         SYSOUT        
IEF285I   KC03C60.KC03C60A.JOB08827.D0000106.?         SYSOUT        
IEF285I   KC03C60.KC03C60A.JOB08827.D0000107.?         SYSOUT        
IEF373I STEP/JSTEP03 /START 2023340.0029
IEF032I STEP/JSTEP03 /STOP  2023340.0029 
        CPU:     0 HR  00 MIN  00.00 SEC    SRB:     0 HR  00 MIN  00.00 SEC    
        VIRT:    20K  SYS:   292K  EXT:        8K  SYS:    11436K
        ATB- REAL:                  1280K  SLOTS:                     0K
             VIRT- ALLOC:      18M SHRD:       0M
IEF375I  JOB/KC03C60A/START 2023340.0029
IEF033I  JOB/KC03C60A/STOP  2023340.0029 
        CPU:     0 HR  00 MIN  00.01 SEC    SRB:     0 HR  00 MIN  00.00 SEC    

                                         High Level Assembler Option Summary                   (PTF UI90738)   Page    1            


                                                                                            HLASM R6.0  2023/12/06 00.29            

  No Overriding ASMAOPT Parameters                                                                                                  
  Overriding Parameters-  ASA                                                                                                       
  No Process Statements                                                                                                             
                                                                                                                                    
                                                                                                                                    
  Options for this Assembly                                                                                                         

                    NOADATA                                                                                                         
                      ALIGN                                                                                                         
3 PARM/OPTION         ASA                                                                                                           
                      ASCII(00819)                                                                                                  
                      BATCH                                                                                                         
                      CA(LOCAL)                                                                                                     
                      CE(LOCAL)                                                                                                     
                      CODEPAGE(01148)                                                                                               
                    NOCOMPAT                                                                                                        
                      CU(LOCAL)                                                                                                     
                    NODATAMAP                                                                                                       
                    NODBCS                                                                                                          
                    NODECK                                                                                                          
                      DXREF                                                                                                         
                      EBCDIC(00037)                                                                                                 
                      ESD                                                                                                           
                    NOEXIT                                                                                                          
                      FAIL(NOMSG,NOMNOTE,MAXERRS(500))                                                                              
                      FLAG(0,ALIGN,CONT,EXLITW,NOIMPLEN,NOLONGER,NOPAGE0,PUSH,RECORD,RENT,NOSIGNED,NOSUBSTR,NOTRUNC,                
                           USING0)                                                                                                  
                    NOFOLD                                                                                                          
                    NOGOFF                                                                                                          
                      ILMA                                                                                                          
                    NOINFO                                                                                                          
                      LANGUAGE(EN)                                                                                                  
                    NOLIBMAC                                                                                                        
                      LINECOUNT(60)                                                                                                 
                      LIST(121)                                                                                                     
                      MACHINE(,NOLIST)                                                                                              
                      MXREF(SOURCE)                                                                                                 
                      OBJECT                                                                                                        
                      OPTABLE(UNI,NOLIST)                                                                                           
                    NOPCONTROL                                                                                                      
                    NOPESTOP                                                                                                        
                    NOPROFILE                                                                                                       
                    NORA2                                                                                                           
                    NORENT                                                                                                          
                      RLD                                                                                                           
                      RXREF                                                                                                         
                      SECTALGN(8)                                                                                                   
                      SIZE(MAX)                                                                                                     
                    NOSUPRWARN                                                                                                      
                      SYSPARM()                                                                                                     
                    NOTERM                                                                                                          
                    NOTEST                                                                                                          
                      THREAD                                                                                                        
                    NOTRANSLATE                                                                                                     
                      TYPECHECK(MAGNITUDE,REGISTER,SIGNED)                                                                          
                      UNICODE(01200)                                                                                                

                                         High Level Assembler Option Summary                   (PTF UI90738)   Page    2            


                                                                                            HLASM R6.0  2023/12/06 00.29            

                      USING(NOLIMIT,MAP,WARN(15))                                                                                   
                    NOWORKFILE                                                                                                      
                      XREF(SHORT,UNREFS)                                                                                            
                                                                                                                                    
  No Overriding DD Names                                                                                                            

                                              External Symbol Dictionary                                       Page    3            


Symbol   Type   Id     Address  Length   Owner Id Flags Alias-of                            HLASM R6.0  2023/12/06 00.29            

SALESRPT  SD 00000001 00000000 000010B4             00                                                                              

                                                                                                               Page    4            
  Active Usings: None                                                                                                               

  Loc  Object Code    Addr1 Addr2  Stmt   Source Statement                                  HLASM R6.0  2023/12/06 00.29            

                                      1 *      ********************************************************                             
                                      2 *      *                                                      *                             
                                      3 *      * PROGRAM NAME: SALESRPT  	                            *                             
                                      4 *      * PROGRAMMER:   MIKE RASMUSSEN                         *                             
                                      5 *      * DUE DATE:     11/29/2023                             *                             
                                      6 *      *                                                      *                             
                                      7 *      * FUNCTION: THIS PROGRAM READS INPUT DATA RECORDS      *                             
                                      8 *      *           AND THEN WRITES THEM TO STANDARD OUTPUT.   *                             
                                      9 *      *                                                      *                             
                                     10 *      * INPUT: SALESFLE - THE INPUT DATA RECORDS READ IN     *                             
                                     11 *      *                                                      *                             
                                     12 *      * OUTPUT: REPORT - THE DATA RECORDS WRITTEN OUT        *                             
                                     13 *      *                                                      *                             
                                     14 *      * ENTRY CONDITIONS: N/A                                *                             
                                     15 *      *                                                      *                             
                                     16 *      * EXIT CONDITIONS: R15 RETURNS A RETURN CODE           *                             
                                     17 *      *                                                      *                             
                                     18 *      * NOTES: NONE                                          *                             
                                     19 *      *                                                      *                             
                                     20 *      ********************************************************                             
                                     21 *                                                                                           
                                     22 * INPUT FUND REC                                                                            
                                     23 *                                                                                           
000000                00000 0003A    24 $FUNDREC DSECT                                                                              
000000                               25 $ISHRPRC  DS   ZL5           SHARE PRICE                                                    
000005                               26 $IFUNDNME DS   CL35          FUND NAME                                                      
000028                               27 $ICOMPCT1 DS   ZL6           COMM PERCENT 1                                                 
00002E                               28 $ICOMPCT2 DS   ZL6           COMM PERCENT 2                                                 
000034                               29 $ICOMPCT3 DS   ZL6           COMM PERCENT 3                                                 
                                     30 *                                                                                           
000000                00000 0003C    31 $SALEREC DSECT                                                                              
000000                               32 $IBRNCNME DS   CL20          BRANCH NAME                                                    
000014                               33 $IBRKRNME DS   CL25          BROKER NAME                                                    
00002D                               34 $IDEPAMT  DS   ZL10          DEPOSIT AMOUNT                                                 
000037                               35           DS   CL4           SPACES                                                         
00003B                               36 $ICOMMFLG DS   ZL1           COMM FLAG                                                      

                                     38 *                                                                                           
000000                00000 010B4    39 SALESRPT CSECT                       BEGIN SALESRPT                                         
                                     40 *                                                                                           
000000 90EC D00C            0000C    41          STM   14,12,12(13)          SAVE CALLER'S REGS                                     
000004 18CF                          42          LR    12,15                 SET R12 TO R15                                         
                 R:C  00000          43          USING SALESRPT,12           ESTABLISH R12 AS 1ST BASE REG                          
000006 41E0 C6B0            006B0    44          LA    14,REGS               R14 -> CURRENT SAVE AREA                               
00000A 50D0 E004            00004    45          ST    13,4(,14)             SAVE CALLER'S SAVE AREA ADDR                           
00000E 50E0 E008            00008    46          ST    14,8(,14)             SAVE CURRENT SAVE AREA ADDR                            
000012 18DE                          47          LR    13,14                 R13 -> CURRENT SAVE AREA                               
                                     48 *                                                                                           
000014 41B0 CFFF            00FFF    49          LA    11,4095(,12)                                                                 
000018 41B0 B001            00001    50          LA    11,1(,11)                                                                    
                 R:B  01000          51          USING SALESRPT+4096,11                                                             
                                     52 *                                                                                           
                                     53          TIME  DEC,DATETIME,LINKAGE=SYSTEM,DATETYPE=MMDDYYYY                                
                                     54+*        MACDATE  02/15/04                                         @L3C                     
00001C                               56+         DS    0H                                                  @D2A 01-TIME             

                                                                                                               Page    5            
  Active Usings: SALESRPT+X'1000',R11  SALESRPT,R12                                                                                 

  Loc  Object Code    Addr1 Addr2  Stmt   Source Statement                                  HLASM R6.0  2023/12/06 00.29            

00001C 5110 0000            00000    57+         LAE   1,0(0,0)                 ZERO ACCESS REGISTER 1     @D2A 01-TIME             
000020 4110 C028            00028    58+         LA    1,IHB0001D               POINT TO PARAMETER LIST    @D2A 01-TIME             
000024 47F0 C044            00044    59+         B     IHB0001W                 BRANCH AROUND LIST         @D2A 01-TIME             
000028                               60+IHB0001D DS    0F                                                  @D3A 01-TIME             
000028 0000                          61+         DC    FL2'0'                                              @D3C 01-TIME             
00002A 00                            62+         DC    FL1'0'                                              @D3A 01-TIME             
00002B 00                            63+         DC    FL1'0'                                              @D3A 01-TIME             
00002C 0000000000000000              64+         DC    2F'0'                                               @D2A 01-TIME             
000034 0000000000000000              65+         DC    2F'0'                                               @D2A 01-TIME             
00003C 0000000000000000              66+         DC    2F'0'                                               @D2A 01-TIME             
000044                               67+IHB0001W DS    0H                                                  @D2A 01-TIME             
000044 9202 1003      00003          68+         MVI   3(1),2                  TIME FLAGS INTO P LIST      @D2A 01-TIME             
000048 9201 1002      00002          69+         MVI   2(1),1                  DATE FLAGS INTO P LIST      @D3A 01-TIME             
00004C 58E0 0010            00010    70+         L     14,16(0,0)              CVT ADDRESS                 @D2A 01-TIME             
000050 58EE 0304            00304    71+         L     14,772(14,0)            SFT ADDRESS                 @D2A 01-TIME             
000054 58EE 0130            00130    72+         L     14,304(14,0)            LX/EX FOR SERVICE ROUTINE   @D2A 01-TIME             
000058 B218 E000      00000          73+         PC    0(14)                                               @D2A 01-TIME             
00005C 51E0 CF74            00F74    74+         LAE   14,DATETIME             ADDRESS OF USER'S AREA      @D2A 01-TIME             
000060 D20F E000 100C 00000 0000C    75+         MVC   0(16,14),12(1)          MOVE OUTPUT FROM PARM LIST  @D2A 01-TIME             
                                     76+*                                      TO THE USER'S AREA                                   
                                     77 *                                                                                           
000066 D20C C7C6 C604 007C6 00604    78          MVC   OHDRDTE-3(13),=X'40202120206120206120202020'                                 
00006C DE0C C7C6 CF7B 007C6 00F7B    79          ED    OHDRDTE-3(13),DATETIME+7                                                     
000072 92F1 C7C8      007C8          80          MVI   HEADER1,C'1'                                                                 
                                     81 *                                                                                           
000076 D206 C84D C611 0084D 00611    82          MVC   OHDRTME-2(7),=X'402120207A2020'                                              
00007C DE06 C84D CF74 0084D 00F74    83          ED    OHDRTME-2(7),DATETIME                                                        
                                     84 *                                                                                           
                                     85          OPEN  (SALEDCB,(INPUT))       OPEN INPUT FILE                                      
000082 0700                          87+         CNOP  0,4                      Align list to word              01-OPEN             
000084 4D10 C08C            0008C    88+         BAS   1,*+8                    Load reg 1 with list address    01-OPEN             
000088 80                            89+         DC    AL1(128)                 Option byte                     01-OPEN             
000089 000F84                        90+         DC    AL3(SALEDCB)             DCB or ACB address              01-OPEN             
00008C 0A13                          91+         SVC   19                       Issue OPEN SVC                  01-OPEN             
00008E 12FF                          92          LTR   15,15                 CHECK FOR SUCCESSFUL OPEN                              
000090 4780 C0A4            000A4    93          BZ    OPENOK1               BRANCH IF SUCCESSFUL TO OPENOK1                        
                                     94          ABEND 222,DUMP              ABEND IF OPEN FAILS & DISPLAY 222                      
000094                               96+         DS    0H                                                       01-ABEND            
000094 4110 00DE            000DE    99+         LA    1,222                             LOAD PARAMETER REG 1   02-IHBIN            
000098 4100 0080            00080   100+         LA    0,128(0,0)         DUMP/STEP/DUMPOPTS/REASON    @G860P1F 01-ABEND            
00009C 8900 0018            00018   101+         SLL   0,24(0)            SHIFT TO HIGH ORDER                   01-ABEND            
0000A0 1610                         102+         OR    1,0                OR IN WITH COMPCODE                   01-ABEND            
0000A2 0A0D                         103+         SVC   13                 LINK TO ABEND ROUTINE                 01-ABEND            
                                    104 *                                                                                           
                                    105 OPENOK1  OPEN  (RPTDCB,(OUTPUT))     OPEN OUTPUT FILE                                       
0000A4                              107+         CNOP  0,4                      Align list to word              01-OPEN             
0000A4 4D10 C0AC            000AC   108+OPENOK1  BAS   1,*+8                    Load reg 1 with list address    01-OPEN             
0000A8 8F                           109+         DC    AL1(143)                 Option byte                     01-OPEN             
0000A9 000FEC                       110+         DC    AL3(RPTDCB)              DCB or ACB address              01-OPEN             
0000AC 0A13                         111+         SVC   19                       Issue OPEN SVC                  01-OPEN             
0000AE 12FF                         112          LTR   15,15                 CHECK FOR SUCCESSFUL OPEN                              
0000B0 4780 C0C4            000C4   113          BZ    OPENOK2               BRANCH IF SUCCESSFUL TO OPENOK2                        
                                    114          ABEND 333,DUMP              ABEND IF OPEN FAILS & DISPLAY 333                      
0000B4                              116+         DS    0H                                                       01-ABEND            
0000B4 4110 014D            0014D   119+         LA    1,333                             LOAD PARAMETER REG 1   02-IHBIN            

                                                                                                               Page    6            
  Active Usings: SALESRPT+X'1000',R11  SALESRPT,R12                                                                                 

  Loc  Object Code    Addr1 Addr2  Stmt   Source Statement                                  HLASM R6.0  2023/12/06 00.29            

0000B8 4100 0080            00080   120+         LA    0,128(0,0)         DUMP/STEP/DUMPOPTS/REASON    @G860P1F 01-ABEND            
0000BC 8900 0018            00018   121+         SLL   0,24(0)            SHIFT TO HIGH ORDER                   01-ABEND            
0000C0 1610                         122+         OR    1,0                OR IN WITH COMPCODE                   01-ABEND            
0000C2 0A0D                         123+         SVC   13                 LINK TO ABEND ROUTINE                 01-ABEND            
                                    124 *                                                                                           
                                    125 OPENOK2  OPEN  (HSDCB,(OUTPUT))      OPEN OUTPUT FILE                                       
0000C4                              127+         CNOP  0,4                      Align list to word              01-OPEN             
0000C4 4D10 C0CC            000CC   128+OPENOK2  BAS   1,*+8                    Load reg 1 with list address    01-OPEN             
0000C8 8F                           129+         DC    AL1(143)                 Option byte                     01-OPEN             
0000C9 00104C                       130+         DC    AL3(HSDCB)               DCB or ACB address              01-OPEN             
0000CC 0A13                         131+         SVC   19                       Issue OPEN SVC                  01-OPEN             
0000CE 12FF                         132          LTR   15,15                 CHECK FOR SUCCESSFUL OPEN                              
0000D0 4780 C0E4            000E4   133          BZ    OPENOK3               BRANCH IF SUCCESSFUL TO OPENOK1                        
                                    134          ABEND 444,DUMP              ABEND IF OPEN FAILS & DISPLAY 444                      
0000D4                              136+         DS    0H                                                       01-ABEND            
0000D4 4110 01BC            001BC   139+         LA    1,444                             LOAD PARAMETER REG 1   02-IHBIN            
0000D8 4100 0080            00080   140+         LA    0,128(0,0)         DUMP/STEP/DUMPOPTS/REASON    @G860P1F 01-ABEND            
0000DC 8900 0018            00018   141+         SLL   0,24(0)            SHIFT TO HIGH ORDER                   01-ABEND            
0000E0 1610                         142+         OR    1,0                OR IN WITH COMPCODE                   01-ABEND            
0000E2 0A0D                         143+         SVC   13                 LINK TO ABEND ROUTINE                 01-ABEND            
                                    144 *                                                                                           
                                    145 OPENOK3  GET   SALEDCB,RECORD        READ THE FIRST RECORD                                  
0000E4 4110 CF84            00F84   149+OPENOK3  LA    1,SALEDCB                         LOAD PARAMETER REG 1   02-IHBIN            
0000E8 4100 C6F8            006F8   150+         LA    0,RECORD                          LOAD PARAMETER REG 0   02-IHBIN            
0000EC 1FFF                         151+         SLR   15,15                    CLEAR REGISTER             @L1A 01-GET              
0000EE BFF7 1031            00031   152+         ICM   15,7,49(1)               LOAD GET ROUTINE ADDR      @L1C 01-GET              
0000F2 0DEF                         153+         BASR  14,15                    LINK TO GET ROUTINE        @L3C 01-GET              
                                    154 *                                                                                           
0000F4 1831                         155          LR    3,1                                                                          
0000F6 95E8 CFE4      00FE4         156          CLI   EOFFLAG,C'Y'          CHECK FOR END OF INPUT DATA                            
0000FA 4780 C59C            0059C   157          BE    ENDPGM                                                                       
                                    158 *                                                                                           
                 R:3  00000         159          USING $FUNDREC,3                                                                   
                                    160 *                                                                                           
0000FE F224 C74C 3000 0074C 00000   161          PACK  PSHRPRC(3),$ISHRPRC(5)  SAVE SHARE PRICE INTO STORAGE                        
000104 D222 C7FA 3005 007FA 00005   162          MVC   OFUNDNME(35),$IFUNDNME   MOVES FUND NAME TO HEADER                           
00010A F235 C74F 3028 0074F 00028   163          PACK  PCOMPCT1(4),$ICOMPCT1(6)  MOVE COMM PCT 1 INTO STORAGE                       
000110 F235 C753 302E 00753 0002E   164          PACK  PCOMPCT2(4),$ICOMPCT2(6)  MOVE COMM PCT 2 INTO STORAGE                       
000116 F235 C757 3034 00757 00034   165          PACK  PCOMPCT3(4),$ICOMPCT3(6)  MOVE COMM PCT 3 INTO STORAGE                       
00011C 4110 C91B            0091B   166          LA    1,OSHRPRC+3                                                                  
000120 D206 C918 C618 00918 00618   167          MVC   OSHRPRC(7),=X'402021204B2020'                                                
000126 DF06 C918 C74C 00918 0074C   168          EDMK  OSHRPRC(7),PSHRPRC                                                           
00012C 0610                         169          BCTR  1,0                                                                          
00012E 925B 1000      00000         170          MVI   0(1),C'$'             DISPLAY $                                              
                                    171 *                                                                                           
                                    172          DROP  3                     DROP ADRESSABILITY ON R3                               
000132 4120 0063            00063   173          LA    2,99                  R2 = 99                                                
                                    174 *                                                                                           
                 R:3  00000         175          USING $SALEREC,3                                                                   
                                    176          GET   SALEDCB                                                                      
000136 4110 CF84            00F84   180+         LA    1,SALEDCB                         LOAD PARAMETER REG 1   02-IHBIN            
00013A 1FFF                         181+         SLR   15,15                    CLEAR REGISTER             @L1A 01-GET              
00013C BFF7 1031            00031   182+         ICM   15,7,49(1)               LOAD GET ROUTINE ADDR      @L1C 01-GET              
000140 0DEF                         183+         BASR  14,15                    LINK TO GET ROUTINE        @L3C 01-GET              
                                    184 *                                                                                           

                                                                                                               Page    7            
  Active Usings: $SALEREC,R3  SALESRPT+X'1000',R11  SALESRPT,R12                                                                    

  Loc  Object Code    Addr1 Addr2  Stmt   Source Statement                                  HLASM R6.0  2023/12/06 00.29            

000142 95E8 CFE4      00FE4         185 LOOP1    CLI   EOFFLAG,C'Y'          CHECK FOR END OF INPUT DATA                            
                                    186 *                                                                                           
000146 4780 C32C            0032C   187          BE    ENDLOOP1              BRANCH TO ENDLOOP1 IF EOF                              
                                    188 *                                                                                           
00014A 1831                         189          LR    3,1                                                                          
00014C D24F C6F8 1000 006F8 00000   190          MVC   RECORD(80),0(1)       MOVE 80 BTYES TO SALEDCB                               
000152 FA10 C748 C61F 00748 0061F   191          AP    PSALECTR(2),=PL1'1'     ADD 1 TO RECORD COUNTER                              
                                    192 *                                                                                           
000158 D213 CD60 3000 00D60 00000   193          MVC   OBRNNME(20),$IBRNCNME    MOVE BRANCH NAME FROM INPUT                         
00015E D218 CD81 3014 00D81 00014   194          MVC   OBKRNME(25),$IBRKRNME    MOVE BROKER NAME FROM INPUT                         
000164 F259 C75B 302D 0075B 0002D   195          PACK  PDEPAMT(6),$IDEPAMT(10)   PACKS DEPOSIT AMOUNT                               
00016A 4110 CDAD            00DAD   196          LA    1,ODEPAMT+11                                                                 
00016E D20E CDA2 C620 00DA2 00620   197          MVC   ODEPAMT(15),=X'402020206B2020206B2021204B2020'                               
000174 DF0E CDA2 C75B 00DA2 0075B   198          EDMK  ODEPAMT(15),PDEPAMT    EDIT DEPAMT INTO PRINT LINE                           
00017A 0610                         199          BCTR  1,0                    DECREASE REG 1 BY 1                                   
00017C 925B 1000      00000         200          MVI   0(1),C'$'               PLACES $                                             
                                    201 *                                                                                           
000180 FA65 C761 C75B 00761 0075B   202          AP    PTDEPAMT(7),PDEPAMT(6)    ADD DEP AMT TO TOTAL                               
                                    203 *                                                                                           
000186 F8A5 C786 C75B 00786 0075B   204          ZAP   PSHRCALC(11),PDEPAMT(6)   COPY DEP AMT INTO PSHRCALC                         
00018C F0A0 C786 0004 00786 00004   205          SRP   PSHRCALC(11),4,0      ADD 4 DEC PLACES                                       
000192 FDA2 C786 C74C 00786 0074C   206          DP    PSHRCALC(11),PSHRPRC(3)  DIVIDE DEP AMT BY SHR AMT                           
000198 F075 C786 003F 00786 0003F   207          SRP   PSHRCALC(8),64-1,5      SHIFT 1 AND ROUNDS                                   
00019E F070 C786 0001 00786 00001   208          SRP   PSHRCALC(8),1,0         ADD A ZERO TO THE END                                
0001A4 D213 CDB8 C5E8 00DB8 005E8   209          MVC   OSHRAMT(20),=X'4020206B2020206B2020206B2021204B20202020'                     
0001AA DE13 CDB8 C786 00DB8 00786   210          ED    OSHRAMT(20),PSHRCALC      MOVE CALC INTO SHR AMT                             
                                    211 *                                                                                           
0001B0 FA87 C770 C786 00770 00786   212          AP    PTSHRAMT(9),PSHRCALC(8)    ADD SHARE AMOUNT TO TOTAL                         
                                    213 *                                                                                           
0001B6 F977 C786 C5E0 00786 005E0   214          CP    PSHRCALC(8),=PL8'500000000'                                                  
0001BC 47D0 C1DC            001DC   215          BNH   CHECKCOM                                                                     
                                    216 *                                                                                           
0001C0 D218 C7A6 3014 007A6 00014   217          MVC   HSBRKNME(25),$IBRKRNME      MOVE BROKER NAME TO HS REC                       
0001C6 F877 C7BF C786 007BF 00786   218          ZAP   HSSHRAMT(8),PSHRCALC(8)   COPY SHR AMOUNT TO HS REC                          
                                    219 *                                                                                           
                                    220          PUT   HSDCB,HSREC           WRITE TO HIGH SALES RECORD                             
0001CC 4110 B04C            0104C   224+         LA    1,HSDCB                           LOAD PARAMETER REG 1   02-IHBIN            
0001D0 4100 C7A6            007A6   225+         LA    0,HSREC                           LOAD PARAMETER REG 0   02-IHBIN            
0001D4 1FFF                         226+         SLR   15,15               CLEAR REGISTER FOR ICM          @L1A 01-PUT              
0001D6 BFF7 1031            00031   227+         ICM   15,7,49(1)          LOAD PUT ROUTINE ADDRESS        @L1C 01-PUT              
0001DA 0DEF                         228+         BASR  14,15               LINK TO PUT ROUTINE             @L3C 01-PUT              
                                    229 *                                                                                           
0001DC D200 C7C7 303B 007C7 0003B   230 CHECKCOM MVC   ICOMMFLG(1),$ICOMMFLG    MOVE COMMISSION FLAG TO STORAGE                     
0001E2 95F1 C7C7      007C7         231          CLI   ICOMMFLG,C'1'                                                                
0001E6 4780 C1FA            001FA   232          BE    COMM1                                                                        
0001EA 95F2 C7C7      007C7         233          CLI   ICOMMFLG,C'2'                                                                
0001EE 4780 C22C            0022C   234          BE    COMM2                                                                        
0001F2 95F3 C7C7      007C7         235          CLI   ICOMMFLG,C'3'                                                                
0001F6 4780 C25E            0025E   236          BE    COMM3                                                                        
                                    237 *                                                                                           
0001FA F8A5 C791 C75B 00791 0075B   238 COMM1    ZAP   PCOMCALC(11),PDEPAMT(6)           CALC FOR COMMISSION 1                      
000200 FCA3 C791 C74F 00791 0074F   239          MP    PCOMCALC(11),PCOMPCT1(4)                                                     
000206 F0A5 C791 003B 00791 0003B   240          SRP   PCOMCALC(11),64-5,5                                                          
00020C 4110 CDDF            00DDF   241          LA    1,OCOMAMT+11                                                                 
000210 D20E CDD4 C620 00DD4 00620   242          MVC   OCOMAMT(15),=X'402020206B2020206B2021204B2020'                               

                                                                                                               Page    8            
  Active Usings: $SALEREC,R3  SALESRPT+X'1000',R11  SALESRPT,R12                                                                    

  Loc  Object Code    Addr1 Addr2  Stmt   Source Statement                                  HLASM R6.0  2023/12/06 00.29            

000216 DF0E CDD4 C796 00DD4 00796   243          EDMK  OCOMAMT(15),PCOMCALC+5                                                       
00021C 0610                         244          BCTR  1,0                                                                          
00021E 925B 1000      00000         245          MVI   0(1),C'$'                                                                    
000222 FA65 C77F C796 0077F 00796   246          AP    PTCOMAMT(7),PCOMCALC+5(6)                                                    
000228 47F0 C290            00290   247          B     CONTINUE                          BRANCH TO CONTINUE                         
                                    248 *                                                                                           
00022C F8A5 C791 C75B 00791 0075B   249 COMM2    ZAP   PCOMCALC(11),PDEPAMT(6)           CALC FOR COMMISSION 2                      
000232 FCA3 C791 C753 00791 00753   250          MP    PCOMCALC(11),PCOMPCT2(4)                                                     
000238 F0A5 C791 003B 00791 0003B   251          SRP   PCOMCALC(11),64-5,5                                                          
00023E 4110 CDDF            00DDF   252          LA    1,OCOMAMT+11                                                                 
000242 D20E CDD4 C620 00DD4 00620   253          MVC   OCOMAMT(15),=X'402020206B2020206B2021204B2020'                               
000248 DF0E CDD4 C796 00DD4 00796   254          EDMK  OCOMAMT(15),PCOMCALC+5                                                       
00024E 0610                         255          BCTR  1,0                                                                          
000250 925B 1000      00000         256          MVI   0(1),C'$'                                                                    
000254 FA65 C77F C796 0077F 00796   257          AP    PTCOMAMT(7),PCOMCALC+5(6)                                                    
00025A 47F0 C290            00290   258          B     CONTINUE                          BRANCH TO CONTINUE                         
                                    259 *                                                                                           
00025E F8A5 C791 C75B 00791 0075B   260 COMM3    ZAP   PCOMCALC(11),PDEPAMT(6)           CALC FOR COMMISSION 3                      
000264 FCA3 C791 C757 00791 00757   261          MP    PCOMCALC(11),PCOMPCT3(4)                                                     
00026A F0A5 C791 003B 00791 0003B   262          SRP   PCOMCALC(11),64-5,5                                                          
000270 4110 CDDF            00DDF   263          LA    1,OCOMAMT+11                                                                 
000274 D20E CDD4 C620 00DD4 00620   264          MVC   OCOMAMT(15),=X'402020206B2020206B2021204B2020'                               
00027A DF0E CDD4 C796 00DD4 00796   265          EDMK  OCOMAMT(15),PCOMCALC+5                                                       
000280 0610                         266          BCTR  1,0                                                                          
000282 925B 1000      00000         267          MVI   0(1),C'$'                                                                    
000286 FA65 C77F C796 0077F 00796   268          AP    PTCOMAMT(7),PCOMCALC+5(6)                                                    
00028C 47F0 C290            00290   269          B     CONTINUE                          BRANCH TO CONTINUE                         
                                    270 *                                                                                           
000290 5920 C5FC            005FC   271 CONTINUE C     2,=F'18'             CHECK IF TIME TO PRINT HEADERS                          
000294 4740 C306            00306   272          BL    NOHDRS1              IF ITS TO EARLY TO PRINT HEADER                         
                                    273 *                                                                                           
000298 FA10 C74A C61F 0074A 0061F   274          AP    PPAGECTR(2),=PL1'1'    ADD 1 TO PAGE COUNTER                                 
00029E D203 C849 C600 00849 00600   275          MVC   OPAGECTR(4),=X'40202120'    MOVE IN EDIT PATTERN                             
0002A4 DE03 C849 C74A 00849 0074A   276          ED    OPAGECTR(4),PPAGECTR       EDIT IN PAGE COUNTER                              
                                    277 *                                                                                           
                                    278          PUT   RPTDCB                WRITES IN PAGE HEADER 1                                
0002AA 4110 CFEC            00FEC   282+         LA    1,RPTDCB                          LOAD PARAMETER REG 1   02-IHBIN            
0002AE 1FFF                         283+         SLR   15,15               CLEAR REGISTER FOR ICM          @L1A 01-PUT              
0002B0 BFF7 1031            00031   284+         ICM   15,7,49(1)          LOAD PUT ROUTINE ADDRESS        @L1C 01-PUT              
0002B4 0DEF                         285+         BASR  14,15               LINK TO PUT ROUTINE             @L3C 01-PUT              
0002B6 D284 1000 C7C8 00000 007C8   286          MVC   0(133,1),HEADER1                                                             
                                    287 *                                                                                           
                                    288          PUT   RPTDCB                WRITES IN PAGE HEADER 2                                
0002BC 4110 CFEC            00FEC   292+         LA    1,RPTDCB                          LOAD PARAMETER REG 1   02-IHBIN            
0002C0 1FFF                         293+         SLR   15,15               CLEAR REGISTER FOR ICM          @L1A 01-PUT              
0002C2 BFF7 1031            00031   294+         ICM   15,7,49(1)          LOAD PUT ROUTINE ADDRESS        @L1C 01-PUT              
0002C6 0DEF                         295+         BASR  14,15               LINK TO PUT ROUTINE             @L3C 01-PUT              
0002C8 D284 1000 C84E 00000 0084E   296          MVC   0(133,1),HEADER2                                                             
                                    297 *                                                                                           
                                    298          PUT   RPTDCB                WRITES IN PAGE HEADER 3                                
0002CE 4110 CFEC            00FEC   302+         LA    1,RPTDCB                          LOAD PARAMETER REG 1   02-IHBIN            
0002D2 1FFF                         303+         SLR   15,15               CLEAR REGISTER FOR ICM          @L1A 01-PUT              
0002D4 BFF7 1031            00031   304+         ICM   15,7,49(1)          LOAD PUT ROUTINE ADDRESS        @L1C 01-PUT              
0002D8 0DEF                         305+         BASR  14,15               LINK TO PUT ROUTINE             @L3C 01-PUT              
0002DA D284 1000 C8D3 00000 008D3   306          MVC   0(133,1),HEADER3                                                             

                                                                                                               Page    9            
  Active Usings: $SALEREC,R3  SALESRPT+X'1000',R11  SALESRPT,R12                                                                    

  Loc  Object Code    Addr1 Addr2  Stmt   Source Statement                                  HLASM R6.0  2023/12/06 00.29            

                                    307 *                                                                                           
                                    308          PUT   RPTDCB                WRITES COLUMN HEADERS                                  
0002E0 4110 CFEC            00FEC   312+         LA    1,RPTDCB                          LOAD PARAMETER REG 1   02-IHBIN            
0002E4 1FFF                         313+         SLR   15,15               CLEAR REGISTER FOR ICM          @L1A 01-PUT              
0002E6 BFF7 1031            00031   314+         ICM   15,7,49(1)          LOAD PUT ROUTINE ADDRESS        @L1C 01-PUT              
0002EA 0DEF                         315+         BASR  14,15               LINK TO PUT ROUTINE             @L3C 01-PUT              
0002EC D284 1000 C958 00000 00958   316          MVC   0(133,1),COLHDR1                                                             
                                    317 *                                                                                           
                                    318          PUT   RPTDCB                WRITES COLUMN HYPHENS                                  
0002F2 4110 CFEC            00FEC   322+         LA    1,RPTDCB                          LOAD PARAMETER REG 1   02-IHBIN            
0002F6 1FFF                         323+         SLR   15,15               CLEAR REGISTER FOR ICM          @L1A 01-PUT              
0002F8 BFF7 1031            00031   324+         ICM   15,7,49(1)          LOAD PUT ROUTINE ADDRESS        @L1C 01-PUT              
0002FC 0DEF                         325+         BASR  14,15               LINK TO PUT ROUTINE             @L3C 01-PUT              
0002FE D284 1000 CA62 00000 00A62   326          MVC   0(133,1),HDRHYP                                                              
                                    327 *                                                                                           
000304 1B22                         328          SR    2,2                                                                          
                                    329 *                                                                                           
                                    330 NOHDRS1  PUT   RPTDCB                WRITE TO DETAIL LINE                                   
000306 4110 CFEC            00FEC   334+NOHDRS1  LA    1,RPTDCB                          LOAD PARAMETER REG 1   02-IHBIN            
00030A 1FFF                         335+         SLR   15,15               CLEAR REGISTER FOR ICM          @L1A 01-PUT              
00030C BFF7 1031            00031   336+         ICM   15,7,49(1)          LOAD PUT ROUTINE ADDRESS        @L1C 01-PUT              
000310 0DEF                         337+         BASR  14,15               LINK TO PUT ROUTINE             @L3C 01-PUT              
000312 D284 1000 CD5F 00000 00D5F   338          MVC   0(133,1),DETAIL       COPY DEATILS TO OUTPUT                                 
000318 4120 2001            00001   339          LA    2,1(,2)               ADD 1 TO LINE COUNTER                                  
                                    340 *                                                                                           
                                    341          GET   SALEDCB               GET THE NEXT RECORD                                    
00031C 4110 CF84            00F84   345+         LA    1,SALEDCB                         LOAD PARAMETER REG 1   02-IHBIN            
000320 1FFF                         346+         SLR   15,15                    CLEAR REGISTER             @L1A 01-GET              
000322 BFF7 1031            00031   347+         ICM   15,7,49(1)               LOAD GET ROUTINE ADDR      @L1C 01-GET              
000326 0DEF                         348+         BASR  14,15                    LINK TO GET ROUTINE        @L3C 01-GET              
                                    349 *                                                                                           
000328 47F0 C142            00142   350          B     LOOP1                 BRANCH TO TOP OF LOOP1                                 
                                    351          DROP  3                                                                            
                                    352 *                                                                                           
00032C FA10 C74A C61F 0074A 0061F   353 ENDLOOP1 AP    PPAGECTR(2),=PL1'1'   ADD 1 TO PAGE COUNTER                                  
000332 D203 C849 C600 00849 00600   354          MVC   OPAGECTR(4),=X'40202120'    MOVE IN EDIT PATTERN                             
000338 DE03 C849 C74A 00849 0074A   355          ED    OPAGECTR(4),PPAGECTR        EDIT IN PAGE COUNTER                             
                                    356 *                                                                                           
                                    357          PUT   RPTDCB,TOTALS         WRITE THE TOTALS LINE                                  
00033E 4110 CFEC            00FEC   361+         LA    1,RPTDCB                          LOAD PARAMETER REG 1   02-IHBIN            
000342 4100 CE68            00E68   362+         LA    0,TOTALS                          LOAD PARAMETER REG 0   02-IHBIN            
000346 1FFF                         363+         SLR   15,15               CLEAR REGISTER FOR ICM          @L1A 01-PUT              
000348 BFF7 1031            00031   364+         ICM   15,7,49(1)          LOAD PUT ROUTINE ADDRESS        @L1C 01-PUT              
00034C 0DEF                         365+         BASR  14,15               LINK TO PUT ROUTINE             @L3C 01-PUT              
00034E D284 1000 C7C8 00000 007C8   366          MVC   0(133,1),HEADER1                                                             
                                    367 *                                                                                           
000354 D21C C881 C62F 00881 0062F   368          MVC   OSUBTTL(29),=C'BROKER SALES AND COMMISSIONS '                                
00035A D20C C89E C64C 0089E 0064C   369          MVC   OSUBTTL+29(13),=C'REPORT TOTALS'                                             
                                    370 *                                                                                           
                                    371          PUT   RPTDCB                  WRITE HEADER 2                                       
000360 4110 CFEC            00FEC   375+         LA    1,RPTDCB                          LOAD PARAMETER REG 1   02-IHBIN            
000364 1FFF                         376+         SLR   15,15               CLEAR REGISTER FOR ICM          @L1A 01-PUT              
000366 BFF7 1031            00031   377+         ICM   15,7,49(1)          LOAD PUT ROUTINE ADDRESS        @L1C 01-PUT              
00036A 0DEF                         378+         BASR  14,15               LINK TO PUT ROUTINE             @L3C 01-PUT              
00036C D284 1000 C84E 00000 0084E   379          MVC   0(133,1),HEADER2                                                             

                                                                                                               Page   10            
  Active Usings: SALESRPT+X'1000',R11  SALESRPT,R12                                                                                 

  Loc  Object Code    Addr1 Addr2  Stmt   Source Statement                                  HLASM R6.0  2023/12/06 00.29            

                                    380 *                                                                                           
                                    381          PUT   RPTDCB                  WRITE HEADER 3                                       
000372 4110 CFEC            00FEC   385+         LA    1,RPTDCB                          LOAD PARAMETER REG 1   02-IHBIN            
000376 1FFF                         386+         SLR   15,15               CLEAR REGISTER FOR ICM          @L1A 01-PUT              
000378 BFF7 1031            00031   387+         ICM   15,7,49(1)          LOAD PUT ROUTINE ADDRESS        @L1C 01-PUT              
00037C 0DEF                         388+         BASR  14,15               LINK TO PUT ROUTINE             @L3C 01-PUT              
00037E D284 1000 C8D3 00000 008D3   389          MVC   0(133,1),HEADER3                                                             
                                    390 *                                                                                           
                                    391          PUT   RPTDCB                  WRITE TOTALS COL HEADERS                             
000384 4110 CFEC            00FEC   395+         LA    1,RPTDCB                          LOAD PARAMETER REG 1   02-IHBIN            
000388 1FFF                         396+         SLR   15,15               CLEAR REGISTER FOR ICM          @L1A 01-PUT              
00038A BFF7 1031            00031   397+         ICM   15,7,49(1)          LOAD PUT ROUTINE ADDRESS        @L1C 01-PUT              
00038E 0DEF                         398+         BASR  14,15               LINK TO PUT ROUTINE             @L3C 01-PUT              
000390 D284 1000 C9DD 00000 009DD   399          MVC   0(133,1),TCOLHDR                                                             
                                    400 *                                                                                           
                                    401          PUT   RPTDCB                  WRITE TOTAL HYPENS                                   
000396 4110 CFEC            00FEC   405+         LA    1,RPTDCB                          LOAD PARAMETER REG 1   02-IHBIN            
00039A 1FFF                         406+         SLR   15,15               CLEAR REGISTER FOR ICM          @L1A 01-PUT              
00039C BFF7 1031            00031   407+         ICM   15,7,49(1)          LOAD PUT ROUTINE ADDRESS        @L1C 01-PUT              
0003A0 0DEF                         408+         BASR  14,15               LINK TO PUT ROUTINE             @L3C 01-PUT              
0003A2 D284 1000 CAE7 00000 00AE7   409          MVC   0(133,1),TOTHYPH                                                             
                                    410 *                                                                                           
0003A8 DE03 CE9B C748 00E9B 00748   411          ED    OSLECTR(4),PSALECTR      EDIT REC COUNTER INTO TOTALS                        
                                    412 *                                                                                           
0003AE 4110 CEB6            00EB6   413          LA    1,OTDEPAMT+14           DISPLAY DEP AMT                                      
0003B2 DF11 CEA8 C761 00EA8 00761   414          EDMK  OTDEPAMT(18),PTDEPAMT                                                        
0003B8 0610                         415          BCTR  1,0                                                                          
0003BA 925B 1000      00000         416          MVI   0(1),C'$'                                                                    
                                    417 *                                                                                           
0003BE DE16 CEBE C770 00EBE 00770   418          ED    OTSHRAMT(23),PTSHRAMT                                                        
                                    419 *                                                                                           
0003C4 4110 CEE9            00EE9   420          LA    1,OTCOMAMT+14           DISPLAY COMM AMT                                     
0003C8 DF11 CEDB C77F 00EDB 0077F   421          EDMK  OTCOMAMT(18),PTCOMAMT                                                        
0003CE 0610                         422          BCTR  1,0                                                                          
0003D0 925B 1000      00000         423          MVI   0(1),C'$'                                                                    
                                    424 *                                                                                           
                                    425          PUT   RPTDCB                                                                       
0003D4 4110 CFEC            00FEC   429+         LA    1,RPTDCB                          LOAD PARAMETER REG 1   02-IHBIN            
0003D8 1FFF                         430+         SLR   15,15               CLEAR REGISTER FOR ICM          @L1A 01-PUT              
0003DA BFF7 1031            00031   431+         ICM   15,7,49(1)          LOAD PUT ROUTINE ADDRESS        @L1C 01-PUT              
0003DE 0DEF                         432+         BASR  14,15               LINK TO PUT ROUTINE             @L3C 01-PUT              
0003E0 D284 1000 CE68 00000 00E68   433          MVC   0(133,1),TOTALS                                                              
                                    434 *                                                                                           
                                    435          CLOSE (SALEDCB,,HSDCB)        CLOSE THE TWO DCBS                                   
0003E6 0700                         437+         CNOP  0,4                      ALIGN LIST TO FULLWORD          01-CLOSE            
0003E8 4D10 C3F4            003F4   438+         BAS   1,*+12                   LOAD REG1 W/LIST ADDR           01-CLOSE            
0003EC 00                           439+         DC    AL1(0)                   OPTION BYTE                     01-CLOSE            
0003ED 000F84                       440+         DC    AL3(SALEDCB)             DCB OR ACB ADDRESS              01-CLOSE            
0003F0 80                           441+         DC    AL1(128)                 OPTION BYTE                     01-CLOSE            
0003F1 00104C                       442+         DC    AL3(HSDCB)               DCB OR ACB ADDRESS              01-CLOSE            
0003F4 0A14                         443+         SVC   20                       ISSUE CLOSE SVC                 01-CLOSE            
                                    444 *                                                                                           
                                    445          OPEN  (HSDCB,(INPUT))         OPEN HS FILE FOR INPUT                               
0003F6 0700                         447+         CNOP  0,4                      Align list to word              01-OPEN             
0003F8 4D10 C400            00400   448+         BAS   1,*+8                    Load reg 1 with list address    01-OPEN             

                                                                                                               Page   11            
  Active Usings: SALESRPT+X'1000',R11  SALESRPT,R12                                                                                 

  Loc  Object Code    Addr1 Addr2  Stmt   Source Statement                                  HLASM R6.0  2023/12/06 00.29            

0003FC 80                           449+         DC    AL1(128)                 Option byte                     01-OPEN             
0003FD 00104C                       450+         DC    AL3(HSDCB)               DCB or ACB address              01-OPEN             
000400 0A13                         451+         SVC   19                       Issue OPEN SVC                  01-OPEN             
000402 12FF                         452          LTR   15,15                   CHECK IF OPEN SUCESSFULLY                            
000404 4780 C418            00418   453          BZ    OPENOK4                 BRANCH IF SUCESSFULLY OPEN                           
                                    454          ABEND 555,DUMP                ABEND IF OPEN FAILS & DISPLAY                        
000408                              456+         DS    0H                                                       01-ABEND            
000408 4110 022B            0022B   459+         LA    1,555                             LOAD PARAMETER REG 1   02-IHBIN            
00040C 4100 0080            00080   460+         LA    0,128(0,0)         DUMP/STEP/DUMPOPTS/REASON    @G860P1F 01-ABEND            
000410 8900 0018            00018   461+         SLL   0,24(0)            SHIFT TO HIGH ORDER                   01-ABEND            
000414 1610                         462+         OR    1,0                OR IN WITH COMPCODE                   01-ABEND            
000416 0A0D                         463+         SVC   13                 LINK TO ABEND ROUTINE                 01-ABEND            
                                    464 *                                                                                           
000418 F810 C748 C659 00748 00659   465 OPENOK4  ZAP   PSALECTR(2),=PL1'0'                                                          
                                    466 *                                                                                           
00041E 4120 0063            00063   467          LA    2,99                    LINE COUNTER REG = 99                                
000422 F810 C74A C61F 0074A 0061F   468          ZAP   PPAGECTR(2),=PL1'1'                                                          
                                    469          GET   HSDCB,HSREC             READ THE FIRST RECORD                                
000428 4110 B04C            0104C   473+         LA    1,HSDCB                           LOAD PARAMETER REG 1   02-IHBIN            
00042C 4100 C7A6            007A6   474+         LA    0,HSREC                           LOAD PARAMETER REG 0   02-IHBIN            
000430 1FFF                         475+         SLR   15,15                    CLEAR REGISTER             @L1A 01-GET              
000432 BFF7 1031            00031   476+         ICM   15,7,49(1)               LOAD GET ROUTINE ADDR      @L1C 01-GET              
000436 0DEF                         477+         BASR  14,15                    LINK TO GET ROUTINE        @L3C 01-GET              
                                    478 *                                                                                           
000438 95E8 B0AC      010AC         479 LOOP2    CLI   EOFFLAG2,C'Y'           CHECK FOR END OF INPUT DATA                          
00043C 4780 C504            00504   480          BE    ENDLOOP2                                                                     
                                    481 *                                                                                           
000440 FA10 C748 C61F 00748 0061F   482          AP    PSALECTR(2),=PL1'1'       ADD 1 TO RECORD COUNTER                            
000446 D218 CE09 C7A6 00E09 007A6   483          MVC   OHBRKNME(25),HSBRKNME                                                        
00044C DE13 CE2F C7BF 00E2F 007BF   484          ED    OHSHRAMT(20),HSSHRAMT                                                        
000452 FA87 C79C C7BF 0079C 007BF   485          AP    PHSTSHRS(9),HSSHRAMT                                                         
000458 5920 C5FC            005FC   486          C     2,=F'18'                CHECK IF TIME TO PRINT HEADER                        
                                    487 *                                                                                           
00045C 4740 C4DA            004DA   488          BL    NOHDRS2                  DETERMINES TO EARLY TO PRINT                        
                                    489 *                                                                                           
000460 FA10 C74A C61F 0074A 0061F   490          AP    PPAGECTR(2),=PL1'1'      ADD 1 TO PAGE COUNTER                               
000466 D203 C849 C600 00849 00600   491          MVC   OPAGECTR(4),=X'40202120' MOVE IN EDIT PATTERN                                
00046C DE03 C849 C74A 00849 0074A   492          ED    OPAGECTR(4),PPAGECTR     EDIT IN PAGE COUNTER                                
                                    493 *                                                                                           
                                    494          PUT   RPTDCB                  WRITE PAGE HEADER                                    
000472 4110 CFEC            00FEC   498+         LA    1,RPTDCB                          LOAD PARAMETER REG 1   02-IHBIN            
000476 1FFF                         499+         SLR   15,15               CLEAR REGISTER FOR ICM          @L1A 01-PUT              
000478 BFF7 1031            00031   500+         ICM   15,7,49(1)          LOAD PUT ROUTINE ADDRESS        @L1C 01-PUT              
00047C 0DEF                         501+         BASR  14,15               LINK TO PUT ROUTINE             @L3C 01-PUT              
00047E D284 1000 C7C8 00000 007C8   502          MVC   0(133,1),HEADER1                                                             
                                    503 *                                                                                           
000484 D21C C881 C65A 00881 0065A   504          MVC   OSUBTTL(29),=C'    BROKER LARGE SALES REPORT'                                
00048A D20C C89E C677 0089E 00677   505          MVC   OSUBTTL+29(13),=13C' '                                                       
                                    506          PUT   RPTDCB                                                                       
000490 4110 CFEC            00FEC   510+         LA    1,RPTDCB                          LOAD PARAMETER REG 1   02-IHBIN            
000494 1FFF                         511+         SLR   15,15               CLEAR REGISTER FOR ICM          @L1A 01-PUT              
000496 BFF7 1031            00031   512+         ICM   15,7,49(1)          LOAD PUT ROUTINE ADDRESS        @L1C 01-PUT              
00049A 0DEF                         513+         BASR  14,15               LINK TO PUT ROUTINE             @L3C 01-PUT              
00049C D284 1000 C84E 00000 0084E   514          MVC   0(133,1),HEADER2                                                             
                                    515 *                                                                                           

                                                                                                               Page   12            
  Active Usings: SALESRPT+X'1000',R11  SALESRPT,R12                                                                                 

  Loc  Object Code    Addr1 Addr2  Stmt   Source Statement                                  HLASM R6.0  2023/12/06 00.29            

                                    516          PUT   RPTDCB                  WRITE PAGE HEADER 3                                  
0004A2 4110 CFEC            00FEC   520+         LA    1,RPTDCB                          LOAD PARAMETER REG 1   02-IHBIN            
0004A6 1FFF                         521+         SLR   15,15               CLEAR REGISTER FOR ICM          @L1A 01-PUT              
0004A8 BFF7 1031            00031   522+         ICM   15,7,49(1)          LOAD PUT ROUTINE ADDRESS        @L1C 01-PUT              
0004AC 0DEF                         523+         BASR  14,15               LINK TO PUT ROUTINE             @L3C 01-PUT              
0004AE D284 1000 C8D3 00000 008D3   524          MVC   0(133,1),HEADER3                                                             
                                    525 *                                                                                           
                                    526          PUT   RPTDCB                  WRITE COLUMN HEADERS                                 
0004B4 4110 CFEC            00FEC   530+         LA    1,RPTDCB                          LOAD PARAMETER REG 1   02-IHBIN            
0004B8 1FFF                         531+         SLR   15,15               CLEAR REGISTER FOR ICM          @L1A 01-PUT              
0004BA BFF7 1031            00031   532+         ICM   15,7,49(1)          LOAD PUT ROUTINE ADDRESS        @L1C 01-PUT              
0004BE 0DEF                         533+         BASR  14,15               LINK TO PUT ROUTINE             @L3C 01-PUT              
0004C0 D284 1000 CB6C 00000 00B6C   534          MVC   0(133,1),HSCOLHDR                                                            
                                    535 *                                                                                           
                                    536          PUT   RPTDCB                  WRITE COLUMN HYPHENS                                 
0004C6 4110 CFEC            00FEC   540+         LA    1,RPTDCB                          LOAD PARAMETER REG 1   02-IHBIN            
0004CA 1FFF                         541+         SLR   15,15               CLEAR REGISTER FOR ICM          @L1A 01-PUT              
0004CC BFF7 1031            00031   542+         ICM   15,7,49(1)          LOAD PUT ROUTINE ADDRESS        @L1C 01-PUT              
0004D0 0DEF                         543+         BASR  14,15               LINK TO PUT ROUTINE             @L3C 01-PUT              
0004D2 D284 1000 CBF1 00000 00BF1   544          MVC   0(133,1),HSHYPH                                                              
                                    545 *                                                                                           
0004D8 1B22                         546          SR    2,2                     CLEAR LINE COUNTER                                   
                                    547 *                                                                                           
                                    548 NOHDRS2  PUT   RPTDCB                  WRITE THE OHSREC LINE                                
0004DA 4110 CFEC            00FEC   552+NOHDRS2  LA    1,RPTDCB                          LOAD PARAMETER REG 1   02-IHBIN            
0004DE 1FFF                         553+         SLR   15,15               CLEAR REGISTER FOR ICM          @L1A 01-PUT              
0004E0 BFF7 1031            00031   554+         ICM   15,7,49(1)          LOAD PUT ROUTINE ADDRESS        @L1C 01-PUT              
0004E4 0DEF                         555+         BASR  14,15               LINK TO PUT ROUTINE             @L3C 01-PUT              
0004E6 D284 1000 CDE3 00000 00DE3   556          MVC   0(133,1),OHSREC         COPY LINE TO OUTPUT                                  
0004EC 4120 2001            00001   557          LA    2,1(,2)                 ADD 1 TO LINE COUNTER                                
                                    558 *                                                                                           
                                    559          GET   HSDCB,HSREC             READ HS RECORD                                       
0004F0 4110 B04C            0104C   563+         LA    1,HSDCB                           LOAD PARAMETER REG 1   02-IHBIN            
0004F4 4100 C7A6            007A6   564+         LA    0,HSREC                           LOAD PARAMETER REG 0   02-IHBIN            
0004F8 1FFF                         565+         SLR   15,15                    CLEAR REGISTER             @L1A 01-GET              
0004FA BFF7 1031            00031   566+         ICM   15,7,49(1)               LOAD GET ROUTINE ADDR      @L1C 01-GET              
0004FE 0DEF                         567+         BASR  14,15                    LINK TO GET ROUTINE        @L3C 01-GET              
000500 47F0 C438            00438   568          B     LOOP2                   BRANCH TO LOOP 2                                     
                                    569 *                                                                                           
000504 FA10 C74A C61F 0074A 0061F   570 ENDLOOP2 AP    PPAGECTR(2),=PL1'1'                                                          
00050A D203 C849 C600 00849 00600   571          MVC   OPAGECTR(4),=X'40202120'                                                     
000510 DE03 C849 C74A 00849 0074A   572          ED    OPAGECTR(4),PPAGECTR                                                         
                                    573 *                                                                                           
                                    574          PUT   RPTDCB                  WRITE HEADER1                                        
000516 4110 CFEC            00FEC   578+         LA    1,RPTDCB                          LOAD PARAMETER REG 1   02-IHBIN            
00051A 1FFF                         579+         SLR   15,15               CLEAR REGISTER FOR ICM          @L1A 01-PUT              
00051C BFF7 1031            00031   580+         ICM   15,7,49(1)          LOAD PUT ROUTINE ADDRESS        @L1C 01-PUT              
000520 0DEF                         581+         BASR  14,15               LINK TO PUT ROUTINE             @L3C 01-PUT              
000522 D284 1000 C7C8 00000 007C8   582          MVC   0(133,1),HEADER1                                                             
000528 D220 C881 C684 00881 00684   583          MVC   OSUBTTL(33),=C' BROKER LARGE SALES REPORT TOTALS'                            
00052E D208 C8A2 C6A5 008A2 006A5   584          MVC   OSUBTTL+33(9),=9C' '                                                         
                                    585 *                                                                                           
                                    586          PUT   RPTDCB                  WRITE HEADER2                                        
000534 4110 CFEC            00FEC   590+         LA    1,RPTDCB                          LOAD PARAMETER REG 1   02-IHBIN            
000538 1FFF                         591+         SLR   15,15               CLEAR REGISTER FOR ICM          @L1A 01-PUT              

                                                                                                               Page   13            
  Active Usings: SALESRPT+X'1000',R11  SALESRPT,R12                                                                                 

  Loc  Object Code    Addr1 Addr2  Stmt   Source Statement                                  HLASM R6.0  2023/12/06 00.29            

00053A BFF7 1031            00031   592+         ICM   15,7,49(1)          LOAD PUT ROUTINE ADDRESS        @L1C 01-PUT              
00053E 0DEF                         593+         BASR  14,15               LINK TO PUT ROUTINE             @L3C 01-PUT              
000540 D284 1000 C84E 00000 0084E   594          MVC   0(133,1),HEADER2                                                             
                                    595 *                                                                                           
                                    596          PUT   RPTDCB                  WRITE HEADER3                                        
000546 4110 CFEC            00FEC   600+         LA    1,RPTDCB                          LOAD PARAMETER REG 1   02-IHBIN            
00054A 1FFF                         601+         SLR   15,15               CLEAR REGISTER FOR ICM          @L1A 01-PUT              
00054C BFF7 1031            00031   602+         ICM   15,7,49(1)          LOAD PUT ROUTINE ADDRESS        @L1C 01-PUT              
000550 0DEF                         603+         BASR  14,15               LINK TO PUT ROUTINE             @L3C 01-PUT              
000552 D284 1000 C8D3 00000 008D3   604          MVC   0(133,1),HEADER3                                                             
                                    605 *                                                                                           
                                    606          PUT   RPTDCB                  WRITE HS COL HEADERS                                 
000558 4110 CFEC            00FEC   610+         LA    1,RPTDCB                          LOAD PARAMETER REG 1   02-IHBIN            
00055C 1FFF                         611+         SLR   15,15               CLEAR REGISTER FOR ICM          @L1A 01-PUT              
00055E BFF7 1031            00031   612+         ICM   15,7,49(1)          LOAD PUT ROUTINE ADDRESS        @L1C 01-PUT              
000562 0DEF                         613+         BASR  14,15               LINK TO PUT ROUTINE             @L3C 01-PUT              
000564 D284 1000 CC76 00000 00C76   614          MVC   0(133,1),HSTCLHDR                                                            
                                    615 *                                                                                           
                                    616          PUT   RPTDCB                  WRITE HS HYPENS                                      
00056A 4110 CFEC            00FEC   620+         LA    1,RPTDCB                          LOAD PARAMETER REG 1   02-IHBIN            
00056E 1FFF                         621+         SLR   15,15               CLEAR REGISTER FOR ICM          @L1A 01-PUT              
000570 BFF7 1031            00031   622+         ICM   15,7,49(1)          LOAD PUT ROUTINE ADDRESS        @L1C 01-PUT              
000574 0DEF                         623+         BASR  14,15               LINK TO PUT ROUTINE             @L3C 01-PUT              
000576 D284 1000 CCDA 00000 00CDA   624          MVC   0(133,1),HSTHYPH                                                             
                                    625 *                                                                                           
00057C DE03 CF28 C748 00F28 00748   626          ED    OHSCTR(4),PSALECTR        EDIT REC COUNTER INTO TOTALS                       
000582 DE16 CF36 C79C 00F36 0079C   627          ED    OHSTSHRS(23),PHSTSHRS                                                        
                                    628 *                                                                                           
                                    629          PUT   RPTDCB                  WRITE THE TOTALS LINE                                
000588 4110 CFEC            00FEC   633+         LA    1,RPTDCB                          LOAD PARAMETER REG 1   02-IHBIN            
00058C 1FFF                         634+         SLR   15,15               CLEAR REGISTER FOR ICM          @L1A 01-PUT              
00058E BFF7 1031            00031   635+         ICM   15,7,49(1)          LOAD PUT ROUTINE ADDRESS        @L1C 01-PUT              
000592 0DEF                         636+         BASR  14,15               LINK TO PUT ROUTINE             @L3C 01-PUT              
000594 D284 1000 CEED 00000 00EED   637          MVC   0(133,1),HSTOTALS       COPY TOTALS TO OUTPUT                                
                                    638 *                                                                                           
                                    639 ENDPGM   CLOSE (SALEDCB,,RPTDCB)     CLOSE THE TWO DCBs                                     
00059A 0700                         641+         CNOP  0,4                      ALIGN LIST TO FULLWORD          01-CLOSE            
00059C 4D10 C5A8            005A8   642+ENDPGM   BAS   1,*+12                   LOAD REG1 W/LIST ADDR           01-CLOSE            
0005A0 00                           643+         DC    AL1(0)                   OPTION BYTE                     01-CLOSE            
0005A1 000F84                       644+         DC    AL3(SALEDCB)             DCB OR ACB ADDRESS              01-CLOSE            
0005A4 80                           645+         DC    AL1(128)                 OPTION BYTE                     01-CLOSE            
0005A5 000FEC                       646+         DC    AL3(RPTDCB)              DCB OR ACB ADDRESS              01-CLOSE            
0005A8 0A14                         647+         SVC   20                       ISSUE CLOSE SVC                 01-CLOSE            
                                    648 *                                                                                           
0005AA 1BFF                         649          SR    15,15                 SET RC TO 0                                            
0005AC 58D0 D004            00004   650          L     13,4(,13)             R13 -> CALLER'S SAVE AREA                              
0005B0 58E0 D00C            0000C   651          L     14,12(,13)            RESTORE R14                                            
0005B4 980C D014            00014   652          LM    0,12,20(13)           RESTORE R0 THROUGH R12                                 
                                    653 *                                                                                           
0005B8 07FE                         654          BR    14                    RETURN TO CALLER                                       
                                    655 *                                                                                           
0005BA                005BA 005C0   656          ORG   SALESRPT+((*-SALESRPT+31)/32)*32                                             
0005C0 C8C5D9C540C9E240             657          DC    C'HERE IS THE STORAGE FOR SALESRPT'                                          
                                    658 *                                                                                           
0005E0                              659          LTORG                       LTORG TO ORGANIZE LITERALS                             

                                                                                                               Page   14            
  Active Usings: SALESRPT+X'1000',R11  SALESRPT,R12                                                                                 

  Loc  Object Code    Addr1 Addr2  Stmt   Source Statement                                  HLASM R6.0  2023/12/06 00.29            

0005E0 000000500000000C             660                =PL8'500000000'                                                              
0005E8 4020206B2020206B             661                =X'4020206B2020206B2020206B2021204B20202020'                                 
0005FC 00000012                     662                =F'18'                                                                       
000600 40202120                     663                =X'40202120'                                                                 
000604 4020212020612020             664                =X'40202120206120206120202020'                                               
000611 402120207A2020               665                =X'402120207A2020'                                                           
000618 402021204B2020               666                =X'402021204B2020'                                                           
00061F 1C                           667                =PL1'1'                                                                      
000620 402020206B202020             668                =X'402020206B2020206B2021204B2020'                                           
00062F C2D9D6D2C5D940E2             669                =C'BROKER SALES AND COMMISSIONS '                                            
00064C D9C5D7D6D9E340E3             670                =C'REPORT TOTALS'                                                            
000659 0C                           671                =PL1'0'                                                                      
00065A 40404040C2D9D6D2             672                =C'    BROKER LARGE SALES REPORT'                                            
000677 4040404040404040             673                =13C' '                                                                      
000684 40C2D9D6D2C5D940             674                =C' BROKER LARGE SALES REPORT TOTALS'                                        
0006A5 4040404040404040             675                =9C' '                                                                       
                                    676 *                                                                                           
0006AE 0000                                                                                                                         
0006B0 0000000000000000             677 REGS     DC    18F'0'                MAINREGS FOR STANDARD LINKAGE                          
                                    678 *                                                                                           
0006F8                              679 RECORD   DS    CL80                                                                         
                                    680 *                                                                                           
                                    681 * ASSEMBLER STORAGE                                                                         
                                    682 *                                                                                           
                                    683 * PACKED DECIMAL VARIABLES                                                                  
                                    684 *                                                                                           
000748 000C                         685 PSALECTR DC    PL2'0'         PACKED SALE COUNTER                                           
00074A 000C                         686 PPAGECTR DC    PL2'0'         PACKED PAGE COUNTER                                           
00074C 00000C                       687 PSHRPRC  DC    PL3'0'         PACKED SHARE PRICE                                            
00074F 0000000C                     688 PCOMPCT1 DC    PL4'0'         PACKED COMM PCT1                                              
000753 0000000C                     689 PCOMPCT2 DC    PL4'0'         PACKED COMM PCT2                                              
000757 0000000C                     690 PCOMPCT3 DC    PL4'0'         PACKED COMM PCT3                                              
00075B 00000000000C                 691 PDEPAMT  DC    PL6'0'         PACKED DEPOSIT AMOUNT                                         
000761 0000000000000C               692 PTDEPAMT DC    PL7'0'         PACKED TOTAL DEPOSIT AMOUNT                                   
000768 000000000000000C             693 PSHRAMT  DC    PL8'0'         PACKED SHARE AMOUNT                                           
000770 0000000000000000             694 PTSHRAMT DC    PL9'0'         PACKED TOTAL SHARE AOUNT                                      
000779 00000000000C                 695 PCOMMAMT DC    PL6'0'         PACKED COMM AMOUNT                                            
00077F 0000000000000C               696 PTCOMAMT DC    PL7'0'         PACKED TOTAL COMM AMOUNT                                      
000786 0000000000000000             697 PSHRCALC DC    PL11'0'        PACKED TEMP SHARE CALCULATION                                 
000791 0000000000000000             698 PCOMCALC DC    PL11'0'        PACKED TEMP COMM CALCULATION                                  
00079C 0000000000000000             699 PHSTSHRS DC    PL9'0'         PACKED TEMMP HIGH SHARE AMOUNT                                
                                    700 *                                                                                           
                                    701 * HIGH SALE STORAGE                                                                         
                                    702 *                                                                                           
0007A6                              703 HSREC    DS    0H                                                                           
0007A6                              704 HSBRKNME DS    CL25           HIGH SALE BROKER NAME                                         
0007BF 000000000000000C             705 HSSHRAMT DC    PL8'0'         HIGH SALE SHAHE AMOUNT                                        
0007C7                              706 ICOMMFLG DS    ZL1            STORES 1 BYTE FROM RECORD                                     
                                    707 *                                                                                           
                                    708 * FORMATTING OUTPUT                                                                         
                                    709 *                                                                                           
0007C8 F1                           710 HEADER1  DC    C'1'                  CARRIAGE CONTROL                                       
0007C9                              711 OHDRDTE  DS    CL10                  OUTPUT HEADER DATE                                     
0007D3 4040404040404040             712          DC    39C' '                SPACES                                                 
0007FA                              713 OFUNDNME DS    CL35                  OUTPUT FUND NAME                                       

                                                                                                               Page   15            
  Active Usings: SALESRPT+X'1000',R11  SALESRPT,R12                                                                                 

  Loc  Object Code    Addr1 Addr2  Stmt   Source Statement                                  HLASM R6.0  2023/12/06 00.29            

00081D 4040404040404040             714          DC    38C' '                SPACES                                                 
000843 D7C1C7C57A40                 715          DC    C'PAGE: '             OUTPUT PAGE                                            
000849                              716 OPAGECTR DS    CL3                   OUT OF PAGE COUNTER                                    
                                    717 *                                                                                           
00084C                              718          DS    CL2                                                                          
                                    719 *                                                                                           
00084E 40                           720 HEADER2  DC    C' '                  CARRIAGE CONTROL                                       
00084F                              721 OHDRTME  DS    CL7                   TIME HEADER                                            
000856 4040404040404040             722          DC    43C' '                SPACES                                                 
000881 C2D9D6D2C5D940E2             723 OSUBTTL  DC    C'BROKER SALES AND COMISSION REPORT '                                        
0008A3 4040404040404040             724          DC    48C' '                SPACES                                                 
                                    725 *                                                                                           
0008D3 F0                           726 HEADER3  DC    C'0'                   CARRIAGE CONTROL                                      
0008D4 4040404040404040             727          DC    55C' '                 SPACES                                                
00090B E2C8C1D9C540D7D9             728          DC    C'SHARE PRICE: '       SHARE PRICE HEADER                                    
000918                              729 OSHRPRC  DS    CL7                    SHARE PRICE                                           
00091F 4040404040404040             730          DC    57C' '                 SPACES                                                
                                    731 *                                                                                           
000958 F0                           732 COLHDR1  DC    C'0'                   CARRIAGE CONTROL                                      
000959 C2D9C1D5C3C840D5             733          DC    C'BRANCH NAME'                                                               
000964 4040404040404040             734          DC    22C' '                 SPACES                                                
00097A C2D9D6D2C5D940D5             735          DC    C'BROKER NAME'                                                               
000985 4040404040404040             736          DC    23C' '                 SPACES                                                
00099C C4C5D7D6E2C9E340             737          DC    C'DEPOSIT AMOUNT'                                                            
0009AA 4040404040404040             738          DC    15C' '                 SPACES                                                
0009B9 E2C8C1D9C540C1D4             739          DC    C'SHARE AMOUNT'                                                              
0009C5 4040404040404040             740          DC    14C' '                 SPACES                                                
0009D3 C3D6D4D4C9E2E2C9             741          DC    C'COMMISSION'                                                                
                                    742 *                                                                                           
0009DD F0                           743 TCOLHDR  DC    C'0'                   CARRIAGE CONTROL                                      
0009DE 4040404040404040             744          DC    39C' '                 SPACE                                                 
000A05 D5E4D4C2C5D940D6             745          DC    C'NUMBER OF SALES'                                                           
000A14 4040404040404040             746          DC    9C' '                  SPACE                                                 
000A1D E3D6E3C1D340E2C1             747          DC    C'TOTAL SALES AMOUNT'                                                        
000A2F 4040404040404040             748          DC    9C' '                  SPACE                                                 
000A38 E3D6E3C1D340E2C8             749          DC    C'TOTAL SHARE AMOUNT'                                                        
000A4A 4040404040404040             750          DC    8C' '                  SPACE                                                 
000A52 E3D6E3C1D340C3D6             751          DC    C'TOTAL COMMISSION'                                                          
                                    752 *                                                                                           
000A62 F0                           753 HDRHYP   DC    C'0'                   CARRIAGE CONTROL                                      
000A63 6060606060606060             754          DC    20C'-'                 20 DAHES                                              
000A77 4040404040404040             755          DC    13C' '                 SPACES                                                
000A84 6060606060606060             756          DC    25C'-'                 25 DASHES                                             
000A9D 4040404040404040             757          DC    9C' '                  SPACES                                                
000AA6 6060606060606060             758          DC    14C'-'                 14 DASHES                                             
000AB4 4040404040404040             759          DC    9C' '                  SPACES                                                
000ABD 6060606060606060             760          DC    18C'-'                 18 DASHES                                             
000ACF 4040404040404040             761          DC    10C' '                 SPACES                                                
000AD9 6060606060606060             762          DC    14C'-'                 14 DASHES                                             
                                    763 *                                                                                           
000AE7 40                           764 TOTHYPH  DC    C' '                  CARRIAGE CONTROL                                       
000AE8 4040404040404040             765          DC    39C' '                SPACE                                                  
000B0F 6060606060606060             766          DC    15C'-'                15 DASHES                                              
000B1E 4040404040404040             767          DC    9C' '                 SPACE                                                  
000B27 6060606060606060             768          DC    18C'-'                18 DASHES                                              

                                                                                                               Page   16            
  Active Usings: SALESRPT+X'1000',R11  SALESRPT,R12                                                                                 

  Loc  Object Code    Addr1 Addr2  Stmt   Source Statement                                  HLASM R6.0  2023/12/06 00.29            

000B39 4040404040                   769          DC    5C' '                 SPACE                                                  
000B3E 6060606060606060             770          DC    22C'-'                22 DASHES                                              
000B54 404040404040                 771          DC    6C' '                 SPACE                                                  
000B5A 6060606060606060             772          DC    18C'-'                18 DASHES                                              
                                    773 *                                                                                           
000B6C F0                           774 HSCOLHDR DC    C'0'                  CARRIAGE CONTROL                                       
000B6D 4040404040404040             775          DC    40C' '                SPACE                                                  
000B95 C8C9C7C840E2C1D3             776          DC    C'HIGH SALES BROKER NAME'                                                    
000BAB 4040404040404040             777          DC    10C' '                SPACE                                                  
000BB5 C8C9C7C840E2C1D3             778          DC    C'HIGH SALES SHARE AMOUNT'                                                   
000BCC 4040404040404040             779          DC    37C' '                                                                       
                                    780 *                                                                                           
000BF1 40                           781 HSHYPH   DC    C' '                  DETAIL CARRIAGE CONTROL                                
000BF2 4040404040404040             782          DC    37C' '                SPACES                                                 
000C17 6060606060606060             783          DC    25C'-'                25 DASHES                                              
000C30 4040404040404040             784          DC    10C' '                SPACES                                                 
000C3A 6060606060606060             785          DC    23C'-'                23 DASHES                                              
000C51 4040404040404040             786          DC    37C' '                SPACES                                                 
                                    787 *                                                                                           
000C76 F0                           788 HSTCLHDR DC    C'0'                  DETAIL CARRAGE CONTROL                                 
000C77 4040404040404040             789          DC    34C' '                SAPCES                                                 
000C99 D5E4D4C2C5D940D6             790          DC    C'NUMBER OF HIGH SALES BROKERS'                                              
000CB5 4040404040404040             791          DC    37C' '                SPACES                                                 
                                    792 *                                                                                           
000CDA 40                           793 HSTHYPH  DC    C' '                  DETAIL CARRIAGE CONTROL                                
000CDB 4040404040404040             794          DC    34C' '                SPACES                                                 
000CFD 6060606060606060             795          DC    28C'-'                28 DASHES                                              
000D19 40404040                     796          DC    4C' '                 SPACES                                                 
000D1D 6060606060606060             797          DC    29C'-'                29 DASHES                                              
000D3A 4040404040404040             798          DC    37C' '                SPACES                                                 
                                    799 *                                                                                           
                                    800 * DETAIL LINES                                                                              
                                    801 *                                                                                           
000D5F F0                           802 DETAIL   DC    C'0'                  DETAIL CARRIAGE CONTROL                                
000D60                              803 OBRNNME  DS    CL25                  BRANCH NAME FIELD                                      
000D79 4040404040404040             804          DC    8C' '                 SPACES                                                 
000D81                              805 OBKRNME  DS    CL25                  BROKER NAME FIELD                                      
000D9A 4040404040404040             806          DC    8C' '                 SPACES                                                 
000DA2                              807 ODEPAMT  DS    CL15                  DEPOSIT AMOUNT FIELD                                   
000DB1 40404040404040               808          DC    7C' '                 SPACES                                                 
000DB8                              809 OSHRAMT  DS    CL20                  SHARE AMOUNT FIELD                                     
000DCC 4040404040404040             810          DC    8C' '                 SPACES                                                 
000DD4                              811 OCOMAMT  DS    CL15                  COMMISSION AMOUNT FILED                                
                                    812 *                                                                                           
000DE3 F0                           813 OHSREC   DC    C'0'                  OHSREC CARRIAGE CONTROL                                
000DE4 4040404040404040             814          DC    37C' '                SPACES                                                 
000E09                              815 OHBRKNME DS    25C' '                HIGH BROKER NAME                                       
000E22 4040404040404040             816          DC    13C' '                SPACES                                                 
000E2F 4020206B2020206B             817 OHSHRAMT DC    X'4020206B2020206B2020206B2021204B20202020'                                  
000E43 4040404040404040             818          DC    37C' '                                                                       
                                    819 *                                                                                           
000E68 F0                           820 TOTALS   DC    C'0'                  TOTALS CARRIAGE CONTROL                                
000E69 4040404040404040             821          DC    50C' '                 SPACES                                                
000E9B 40202120                     822 OSLECTR  DC    X'40202120'           OUTPUT FOR RECORD COUNT                                
000E9F 4040404040404040             823          DC    9C' '                 SPACES                                                 

                                                                                                               Page   17            
  Active Usings: SALESRPT+X'1000',R11  SALESRPT,R12                                                                                 

  Loc  Object Code    Addr1 Addr2  Stmt   Source Statement                                  HLASM R6.0  2023/12/06 00.29            

000EA8 4020206B2020206B             824 OTDEPAMT DC    X'4020206B2020206B2020206B2021204B2020'                                      
000EBA 40404040                     825          DC    4C' '                  SPACES                                                
000EBE 40206B2020206B20             826 OTSHRAMT DC    X'40206B2020206B2020206B2020206B2021204B20202020'                            
000ED5 404040404040                 827          DC    6C' '                 SPACES                                                 
000EDB 4020206B2020206B             828 OTCOMAMT DC    X'4020206B2020206B2020206B2021204B2020'                                      
                                    829 *                                                                                           
000EED F0                           830 HSTOTALS DC    C'0'                  HSTOTALS CARRIAGE CONTROL                              
000EEE 4040404040404040             831          DC    58C' '                SPACES                                                 
000F28 40202120                     832 OHSCTR   DC    X'40202120'                                                                  
000F2C 4040404040404040             833          DC    10C' '                SPACES                                                 
000F36 40206B2020206B20             834 OHSTSHRS DC    X'40206B2020206B2020206B2020206B2021204B20202020'                            
000F4D 4040404040404040             835          DC    37C' '                SPACES                                                 
                                    836 *                                                                                           
000F74                              837 DATETIME DS    4F            STORAGE FOR TIME MACRO USAGE                                   
                                    838 *                                                                                           
                                    839 *  INPUT DCB                                                                                
                                    840 *                                                                                           
                                    841 SALEDCB  DCB   DDNAME=INDATA,                                          X                    
                                                       DEVD=DA,                                                X                    
                                                       DSORG=PS,                                               X                    
                                                       MACRF=GL,                                               X                    
                                                       RECFM=FB,                                               X                    
                                                       LRECL=80,                                               X                    
                                                       EODAD=EOFRTN                                                                 

                                    844+*                       DATA CONTROL BLOCK                                                  
                                    845+*                                                                                           
000F84                              846+SALEDCB  DC    0F'0'          ORIGIN ON WORD BOUNDARY                   01-DCB              
                                    847+*                       DIRECT ACCESS DEVICE INTERFACE                                      
000F84 0000000000000000             848+         DC    BL16'0'        FDAD, DVTBL                               01-DCB              
000F94 00000000                     849+         DC    A(0)           KEYLEN, DEVT, TRBAL                       01-DCB              
                                    850+*                       COMMON ACCESS METHOD INTERFACE                                      
000F98 00                           851+         DC    AL1(0)         BUFNO, NUMBER OF BUFFERS                  01-DCB              
000F99 000001                       852+         DC    AL3(1)         BUFCB, BUFFER POOL CONTROL BLOCK          01-DCB              
000F9C 0000                         853+         DC    AL2(0)         BUFL, BUFFER LENGTH                       01-DCB              
000F9E 4000                         854+         DC    BL2'0100000000000000' DSORG, DATA SET ORGANIZATION       01-DCB              
000FA0 00000001                     855+         DC    A(1)           IOBAD FOR EXCP OR RESERVED                01-DCB              
                                    856+*                       FOUNDATION EXTENSION                                                
000FA4 00                           857+         DC    BL1'00000000'  BFTEK, BFALN, DCBE INDICATORS             01-DCB              
000FA5 000FE6                       858+         DC    AL3(EOFRTN)    EODAD (END OF DATA ROUTINE ADDRESS)       01-DCB              
000FA8 90                           859+         DC    BL1'10010000'  RECFM (RECORD FORMAT)                     01-DCB              
000FA9 000000                       860+         DC    AL3(0)         EXLST (EXIT LIST ADDRESS)                 01-DCB              
                                    861+*                       FOUNDATION BLOCK                                                    
000FAC C9D5C4C1E3C14040             862+         DC    CL8'INDATA'    DDNAME                                    01-DCB              
000FB4 02                           863+         DC    BL1'00000010'  OFLGS (OPEN FLAGS)                        01-DCB              
000FB5 00                           864+         DC    BL1'00000000'  IFLGS (IOS FLAGS)                         01-DCB              
000FB6 4800                         865+         DC    BL2'0100100000000000' MACR (MACRO FORMAT)                01-DCB              
                                    866+*                       BSAM-BPAM-QSAM INTERFACE                                            
000FB8 00                           867+         DC    BL1'00000000'  OPTCD, OPTION CODES                       01-DCB              
000FB9 000001                       868+         DC    AL3(1)         CHECK OR INTERNAL QSAM SYNCHRONIZING RTN. 01-DCB              
000FBC 00000001                     869+         DC    A(1)           SYNAD, SYNCHRONOUS ERROR RTN. (3 BYTES)   01-DCB              
000FC0 0000                         870+         DC    H'0'           INTERNAL ACCESS METHOD FLAGS              01-DCB              
000FC2 0000                         871+         DC    AL2(0)         BLKSIZE, BLOCK SIZE                       01-DCB              
000FC4 00000000                     872+         DC    F'0'           INTERNAL ACCESS METHOD FLAGS              01-DCB              
000FC8 00000001                     873+         DC    A(1)           INTERNAL ACCESS METHOD USE                01-DCB              

                                                                                                               Page   18            
  Active Usings: SALESRPT+X'1000',R11  SALESRPT,R12                                                                                 

  Loc  Object Code    Addr1 Addr2  Stmt   Source Statement                                  HLASM R6.0  2023/12/06 00.29            

                                    874+*                            QSAM INTERFACE                                                 
000FCC 00000001                     875+         DC    A(1)           EOBAD                                     01-DCB              
000FD0 00000001                     876+         DC    A(1)           RECAD                                     01-DCB              
000FD4 0000                         877+         DC    H'0'           QSWS (FLAGS) AND EITHER DIRCT OR BUFOFF   01-DCB              
000FD6 0050                         878+         DC    AL2(80)        LRECL                                     01-DCB              
000FD8 00                           879+         DC    BL1'00000000'  EROPT, ERROR OPTION                       01-DCB              
000FD9 000001                       880+         DC    AL3(1)         CNTRL                                     01-DCB              
000FDC 00000000                     881+         DC    H'0,0'         RESERVED AND PRECL                        01-DCB              
000FE0 00000001                     882+         DC    A(1)           EOB, INTERNAL ACCESS METHOD FIELD         01-DCB              
                                    883 *                                                                                           
                                    884 *  INPUT DCB'S EOF FLAG AND EOF ROUTINE                                                     
                                    885 *                                                                                           
000FE4 D5                           886 EOFFLAG  DC    C'N'                 EOFFLAG FOR INPUT FILE                                  
                                    887 *                                                                                           
000FE5 00                                                                                                                           
000FE6 92E8 CFE4      00FE4         888 EOFRTN   MVI   EOFFLAG,C'Y'          SET EOF FLAG TO Y                                      
000FEA 07FE                         889          BR    14                    BRANCH TO STMT FOLLOWING GET                           
                                    890 *                                                                                           
                                    891 *  OUTPUT DCB                                                                               
                                    892 *                                                                                           
                                    893 RPTDCB   DCB   DDNAME=RPTDATA,                                         X                    
                                                       DEVD=DA,                                                X                    
                                                       DSORG=PS,                                               X                    
                                                       MACRF=PL,                                               X                    
                                                       RECFM=FBA,                                              X                    
                                                       LRECL=133,                                              X                    
                                                       BLKSIZE=2660                                                                 

                                    896+*                       DATA CONTROL BLOCK                                                  
                                    897+*                                                                                           
000FEC                              898+RPTDCB   DC    0F'0'          ORIGIN ON WORD BOUNDARY                   01-DCB              
                                    899+*                       DIRECT ACCESS DEVICE INTERFACE                                      
000FEC 0000000000000000             900+         DC    BL16'0'        FDAD, DVTBL                               01-DCB              
000FFC 00000000                     901+         DC    A(0)           KEYLEN, DEVT, TRBAL                       01-DCB              
                                    902+*                       COMMON ACCESS METHOD INTERFACE                                      
001000 00                           903+         DC    AL1(0)         BUFNO, NUMBER OF BUFFERS                  01-DCB              
001001 000001                       904+         DC    AL3(1)         BUFCB, BUFFER POOL CONTROL BLOCK          01-DCB              
001004 0000                         905+         DC    AL2(0)         BUFL, BUFFER LENGTH                       01-DCB              
001006 4000                         906+         DC    BL2'0100000000000000' DSORG, DATA SET ORGANIZATION       01-DCB              
001008 00000001                     907+         DC    A(1)           IOBAD FOR EXCP OR RESERVED                01-DCB              
                                    908+*                       FOUNDATION EXTENSION                                                
00100C 00                           909+         DC    BL1'00000000'  BFTEK, BFALN, DCBE INDICATORS             01-DCB              
00100D 000001                       910+         DC    AL3(1)         EODAD (END OF DATA ROUTINE ADDRESS)       01-DCB              
001010 94                           911+         DC    BL1'10010100'  RECFM (RECORD FORMAT)                     01-DCB              
001011 000000                       912+         DC    AL3(0)         EXLST (EXIT LIST ADDRESS)                 01-DCB              
                                    913+*                       FOUNDATION BLOCK                                                    
001014 D9D7E3C4C1E3C140             914+         DC    CL8'RPTDATA'   DDNAME                                    01-DCB              
00101C 02                           915+         DC    BL1'00000010'  OFLGS (OPEN FLAGS)                        01-DCB              
00101D 00                           916+         DC    BL1'00000000'  IFLGS (IOS FLAGS)                         01-DCB              
00101E 0048                         917+         DC    BL2'0000000001001000' MACR (MACRO FORMAT)                01-DCB              
                                    918+*                       BSAM-BPAM-QSAM INTERFACE                                            
001020 00                           919+         DC    BL1'00000000'  OPTCD, OPTION CODES                       01-DCB              
001021 000001                       920+         DC    AL3(1)         CHECK OR INTERNAL QSAM SYNCHRONIZING RTN. 01-DCB              
001024 00000001                     921+         DC    A(1)           SYNAD, SYNCHRONOUS ERROR RTN. (3 BYTES)   01-DCB              
001028 0000                         922+         DC    H'0'           INTERNAL ACCESS METHOD FLAGS              01-DCB              

                                                                                                               Page   19            
  Active Usings: SALESRPT+X'1000',R11  SALESRPT,R12                                                                                 

  Loc  Object Code    Addr1 Addr2  Stmt   Source Statement                                  HLASM R6.0  2023/12/06 00.29            

00102A 0A64                         923+         DC    AL2(2660)      BLKSIZE, BLOCK SIZE                       01-DCB              
00102C 00000000                     924+         DC    F'0'           INTERNAL ACCESS METHOD FLAGS              01-DCB              
001030 00000001                     925+         DC    A(1)           INTERNAL ACCESS METHOD USE                01-DCB              
                                    926+*                            QSAM INTERFACE                                                 
001034 00000001                     927+         DC    A(1)           EOBAD                                     01-DCB              
001038 00000001                     928+         DC    A(1)           RECAD                                     01-DCB              
00103C 0000                         929+         DC    H'0'           QSWS (FLAGS) AND EITHER DIRCT OR BUFOFF   01-DCB              
00103E 0085                         930+         DC    AL2(133)       LRECL                                     01-DCB              
001040 00                           931+         DC    BL1'00000000'  EROPT, ERROR OPTION                       01-DCB              
001041 000001                       932+         DC    AL3(1)         CNTRL                                     01-DCB              
001044 00000000                     933+         DC    H'0,0'         RESERVED AND PRECL                        01-DCB              
001048 00000001                     934+         DC    A(1)           EOB, INTERNAL ACCESS METHOD FIELD         01-DCB              
                                    935 *                                                                                           
                                    936 HSDCB    DCB   DDNAME=HSFLE,                                           X                    
                                                       DEVD=DA,                                                X                    
                                                       DSORG=PS,                                               X                    
                                                       MACRF=(GM,PM),                                          X                    
                                                       RECFM=FB,                                               X                    
                                                       LRECL=33,                                               X                    
                                                       BLKSIZE=330,                                            X                    
                                                       EODAD=EOFRTN2                                                                

                                    939+*                       DATA CONTROL BLOCK                                                  
                                    940+*                                                                                           
00104C                              941+HSDCB    DC    0F'0'          ORIGIN ON WORD BOUNDARY                   01-DCB              
                                    942+*                       DIRECT ACCESS DEVICE INTERFACE                                      
00104C 0000000000000000             943+         DC    BL16'0'        FDAD, DVTBL                               01-DCB              
00105C 00000000                     944+         DC    A(0)           KEYLEN, DEVT, TRBAL                       01-DCB              
                                    945+*                       COMMON ACCESS METHOD INTERFACE                                      
001060 00                           946+         DC    AL1(0)         BUFNO, NUMBER OF BUFFERS                  01-DCB              
001061 000001                       947+         DC    AL3(1)         BUFCB, BUFFER POOL CONTROL BLOCK          01-DCB              
001064 0000                         948+         DC    AL2(0)         BUFL, BUFFER LENGTH                       01-DCB              
001066 4000                         949+         DC    BL2'0100000000000000' DSORG, DATA SET ORGANIZATION       01-DCB              
001068 00000001                     950+         DC    A(1)           IOBAD FOR EXCP OR RESERVED                01-DCB              
                                    951+*                       FOUNDATION EXTENSION                                                
00106C 00                           952+         DC    BL1'00000000'  BFTEK, BFALN, DCBE INDICATORS             01-DCB              
00106D 0010AE                       953+         DC    AL3(EOFRTN2)   EODAD (END OF DATA ROUTINE ADDRESS)       01-DCB              
001070 90                           954+         DC    BL1'10010000'  RECFM (RECORD FORMAT)                     01-DCB              
001071 000000                       955+         DC    AL3(0)         EXLST (EXIT LIST ADDRESS)                 01-DCB              
                                    956+*                       FOUNDATION BLOCK                                                    
001074 C8E2C6D3C5404040             957+         DC    CL8'HSFLE'     DDNAME                                    01-DCB              
00107C 02                           958+         DC    BL1'00000010'  OFLGS (OPEN FLAGS)                        01-DCB              
00107D 00                           959+         DC    BL1'00000000'  IFLGS (IOS FLAGS)                         01-DCB              
00107E 5050                         960+         DC    BL2'0101000001010000' MACR (MACRO FORMAT)                01-DCB              
                                    961+*                       BSAM-BPAM-QSAM INTERFACE                                            
001080 00                           962+         DC    BL1'00000000'  OPTCD, OPTION CODES                       01-DCB              
001081 000001                       963+         DC    AL3(1)         CHECK OR INTERNAL QSAM SYNCHRONIZING RTN. 01-DCB              
001084 00000001                     964+         DC    A(1)           SYNAD, SYNCHRONOUS ERROR RTN. (3 BYTES)   01-DCB              
001088 0000                         965+         DC    H'0'           INTERNAL ACCESS METHOD FLAGS              01-DCB              
00108A 014A                         966+         DC    AL2(330)       BLKSIZE, BLOCK SIZE                       01-DCB              
00108C 00000000                     967+         DC    F'0'           INTERNAL ACCESS METHOD FLAGS              01-DCB              
001090 00000001                     968+         DC    A(1)           INTERNAL ACCESS METHOD USE                01-DCB              
                                    969+*                            QSAM INTERFACE                                                 
001094 00000001                     970+         DC    A(1)           EOBAD                                     01-DCB              
001098 00000001                     971+         DC    A(1)           RECAD                                     01-DCB              

                                                                                                               Page   20            
  Active Usings: SALESRPT+X'1000',R11  SALESRPT,R12                                                                                 

  Loc  Object Code    Addr1 Addr2  Stmt   Source Statement                                  HLASM R6.0  2023/12/06 00.29            

00109C 0000                         972+         DC    H'0'           QSWS (FLAGS) AND EITHER DIRCT OR BUFOFF   01-DCB              
00109E 0021                         973+         DC    AL2(33)        LRECL                                     01-DCB              
0010A0 00                           974+         DC    BL1'00000000'  EROPT, ERROR OPTION                       01-DCB              
0010A1 000001                       975+         DC    AL3(1)         CNTRL                                     01-DCB              
0010A4 00000000                     976+         DC    H'0,0'         RESERVED AND PRECL                        01-DCB              
0010A8 00000001                     977+         DC    A(1)           EOB, INTERNAL ACCESS METHOD FIELD         01-DCB              
                                    978 *                                                                                           
0010AC D5                           979 EOFFLAG2 DC    C'N'                  EOFFLAG FOR INPUT FILE                                 
                                    980 *                                                                                           
0010AD 00                                                                                                                           
0010AE 92E8 B0AC      010AC         981 EOFRTN2  MVI   EOFFLAG2,C'Y'         SET EOF FLAG TO Y                                      
0010B2 07FE                         982          BR    14                    BRANCH TO STMT FOLLOWING GET                           
                                    983 *                                                                                           
000000                              984          END   SALESRPT                                                                     

                                                 Relocation Dictionary                                         Page   21            


   Pos.Id   Rel.Id   Address  Type    Length  Action                                        HLASM R6.0  2023/12/06 00.29            

  00000001 00000001 00000089   A         3       +                                                                                  
  00000001 00000001 000000A9   A         3       +                                                                                  
  00000001 00000001 000000C9   A         3       +                                                                                  
  00000001 00000001 000003ED   A         3       +                                                                                  
  00000001 00000001 000003F1   A         3       +                                                                                  
  00000001 00000001 000003FD   A         3       +                                                                                  
  00000001 00000001 000005A1   A         3       +                                                                                  
  00000001 00000001 000005A5   A         3       +                                                                                  
  00000001 00000001 00000FA5   A         3       +                                                                                  
  00000001 00000001 0000106D   A         3       +                                                                                  

                               Ordinary Symbol and Literal Cross Reference                                     Page   22            


Symbol   Length   Value     Id    R Type Asm  Program   Defn References                     HLASM R6.0  2023/12/06 00.29            

$FUNDREC      1 00000000 FFFFFFFF     J                   24  159U                                                                  
$IBRKRNME                                                                                                                           
             25 00000014 FFFFFFFE     C  C                33  194   217                                                             
$IBRNCNME                                                                                                                           
             20 00000000 FFFFFFFE     C  C                32  193                                                                   
$ICOMMFLG                                                                                                                           
              1 0000003B FFFFFFFE     Z  Z                36  230                                                                   
$ICOMPCT1                                                                                                                           
              6 00000028 FFFFFFFF     Z  Z                27  163                                                                   
$ICOMPCT2                                                                                                                           
              6 0000002E FFFFFFFF     Z  Z                28  164                                                                   
$ICOMPCT3                                                                                                                           
              6 00000034 FFFFFFFF     Z  Z                29  165                                                                   
$IDEPAMT     10 0000002D FFFFFFFE     Z  Z                34  195                                                                   
$IFUNDNME                                                                                                                           
             35 00000005 FFFFFFFF     C  C                26  162                                                                   
$ISHRPRC      5 00000000 FFFFFFFF     Z  Z                25  161                                                                   
$SALEREC      1 00000000 FFFFFFFE     J                   31  175U                                                                  
CHECKCOM      6 000001DC 00000001     I                  230  215B                                                                  
COLHDR1       1 00000958 00000001     C  C               732  316                                                                   
COMM1         6 000001FA 00000001     I                  238  232B                                                                  
COMM2         6 0000022C 00000001     I                  249  234B                                                                  
COMM3         6 0000025E 00000001     I                  260  236B                                                                  
CONTINUE      4 00000290 00000001     I                  271  247B  258B  269B                                                      
DATETIME      4 00000F74 00000001     F  F               837   74    79    83                                                       
DETAIL        1 00000D5F 00000001     C  C               802  338                                                                   
ENDLOOP1      6 0000032C 00000001     I                  353  187B                                                                  
ENDLOOP2      6 00000504 00000001     I                  570  480B                                                                  
ENDPGM        4 0000059C 00000001     I                  642  157B                                                                  
EOFFLAG       1 00000FE4 00000001     C  C               886  156   185   888M                                                      
EOFFLAG2      1 000010AC 00000001     C  C               979  479   981M                                                            
EOFRTN        4 00000FE6 00000001     I                  888  858                                                                   
EOFRTN2       4 000010AE 00000001     I                  981  953                                                                   
HDRHYP        1 00000A62 00000001     C  C               753  326                                                                   
HEADER1       1 000007C8 00000001     C  C               710   80M  286   366   502   582                                           
HEADER2       1 0000084E 00000001     C  C               720  296   379   514   594                                                 
HEADER3       1 000008D3 00000001     C  C               726  306   389   524   604                                                 
HSBRKNME     25 000007A6 00000001     C  C               704  217M  483                                                             
HSCOLHDR      1 00000B6C 00000001     C  C               774  534                                                                   
HSDCB         4 0000104C 00000001     F  F               941  130   224   442   450   473   563                                     
HSHYPH        1 00000BF1 00000001     C  C               781  544                                                                   
HSREC         2 000007A6 00000001     H  H               703  225   474   564                                                       
HSSHRAMT      8 000007BF 00000001     P  P               705  218M  484   485                                                       
HSTCLHDR      1 00000C76 00000001     C  C               788  614                                                                   
HSTHYPH       1 00000CDA 00000001     C  C               793  624                                                                   
HSTOTALS      1 00000EED 00000001     C  C               830  637                                                                   
ICOMMFLG      1 000007C7 00000001     Z  Z               706  230M  231   233   235                                                 
IHB0001D      4 00000028 00000001     F  F                60   58                                                                   
IHB0001W      2 00000044 00000001     H  H                67   59B                                                                  
LOOP1         4 00000142 00000001     I                  185  350B                                                                  
LOOP2         4 00000438 00000001     I                  479  568B                                                                  
NOHDRS1       4 00000306 00000001     I                  334  272B                                                                  
NOHDRS2       4 000004DA 00000001     I                  552  488B                                                                  
OBKRNME      25 00000D81 00000001     C  C               805  194M                                                                  
OBRNNME      25 00000D60 00000001     C  C               803  193M                                                                  

                               Ordinary Symbol and Literal Cross Reference                                     Page   23            


Symbol   Length   Value     Id    R Type Asm  Program   Defn References                     HLASM R6.0  2023/12/06 00.29            

OCOMAMT      15 00000DD4 00000001     C  C               811  241   242M  243M  252   253M  254M  263   264M  265M                  
ODEPAMT      15 00000DA2 00000001     C  C               807  196   197M  198M                                                      
OFUNDNME     35 000007FA 00000001     C  C               713  162M                                                                  
OHBRKNME      1 00000E09 00000001     C  C               815  483M                                                                  
OHDRDTE      10 000007C9 00000001     C  C               711   78M   79M                                                            
OHDRTME       7 0000084F 00000001     C  C               721   82M   83M                                                            
OHSCTR        4 00000F28 00000001     X  X               832  626M                                                                  
OHSHRAMT     20 00000E2F 00000001     X  X               817  484M                                                                  
OHSREC        1 00000DE3 00000001     C  C               813  556                                                                   
OHSTSHRS     23 00000F36 00000001     X  X               834  627M                                                                  
OPAGECTR      3 00000849 00000001     C  C               716  275M  276M  354M  355M  491M  492M  571M  572M                        
OPENOK1       4 000000A4 00000001     I                  108   93B                                                                  
OPENOK2       4 000000C4 00000001     I                  128  113B                                                                  
OPENOK3       4 000000E4 00000001     I                  149  133B                                                                  
OPENOK4       6 00000418 00000001     I                  465  453B                                                                  
OSHRAMT      20 00000DB8 00000001     C  C               809  209M  210M                                                            
OSHRPRC       7 00000918 00000001     C  C               729  166   167M  168M                                                      
OSLECTR       4 00000E9B 00000001     X  X               822  411M                                                                  
OSUBTTL      34 00000881 00000001     C  C               723  368M  369M  504M  505M  583M  584M                                    
OTCOMAMT     18 00000EDB 00000001     X  X               828  420   421M                                                            
OTDEPAMT     18 00000EA8 00000001     X  X               824  413   414M                                                            
OTSHRAMT     23 00000EBE 00000001     X  X               826  418M                                                                  
PCOMCALC     11 00000791 00000001     P  P               698  238M  239M  240M  243   246   249M  250M  251M  254   257             
                                                              260M  261M  262M  265   268                                           
PCOMPCT1      4 0000074F 00000001     P  P               688  163M  239                                                             
PCOMPCT2      4 00000753 00000001     P  P               689  164M  250                                                             
PCOMPCT3      4 00000757 00000001     P  P               690  165M  261                                                             
PDEPAMT       6 0000075B 00000001     P  P               691  195M  198   202   204   238   249   260                               
PHSTSHRS      9 0000079C 00000001     P  P               699  485M  627                                                             
PPAGECTR      2 0000074A 00000001     P  P               686  274M  276   353M  355   468M  490M  492   570M  572                   
PSALECTR      2 00000748 00000001     P  P               685  191M  411   465M  482M  626                                           
PSHRCALC     11 00000786 00000001     P  P               697  204M  205M  206M  207M  208M  210   212   214   218                   
PSHRPRC       3 0000074C 00000001     P  P               687  161M  168   206                                                       
PTCOMAMT      7 0000077F 00000001     P  P               696  246M  257M  268M  421                                                 
PTDEPAMT      7 00000761 00000001     P  P               692  202M  414                                                             
PTSHRAMT      9 00000770 00000001     P  P               694  212M  418                                                             
RECORD       80 000006F8 00000001     C  C               679  150   190M                                                            
REGS          4 000006B0 00000001     F  F               677   44                                                                   
RPTDCB        4 00000FEC 00000001     F  F               898  110   282   292   302   312   322   334   361   375   385             
                                                              395   405   429   498   510   520   530   540   552   578             
                                                              590   600   610   620   633   646                                     
SALEDCB       4 00000F84 00000001     F  F               846   90   149   180   345   440   644                                     
SALESRPT      1 00000000 00000001     J                   39   43U   51U  656   656   984                                           
TCOLHDR       1 000009DD 00000001     C  C               743  399                                                                   
TOTALS        1 00000E68 00000001     C  C               820  362   433                                                             
TOTHYPH       1 00000AE7 00000001     C  C               764  409                                                                   
=C'    BROKER LARGE SALES REPORT'                                                                                                   
             29 0000065A 00000001     C                  672  504                                                                   
=C' BROKER LARGE SALES REPORT TOTALS'                                                                                               
             33 00000684 00000001     C                  674  583                                                                   
=C'BROKER SALES AND COMMISSIONS '                                                                                                   
             29 0000062F 00000001     C                  669  368                                                                   
=C'REPORT TOTALS'                                                                                                                   
             13 0000064C 00000001     C                  670  369                                                                   
=F'18'        4 000005FC 00000001     F                  662  271   486                                                             

                               Ordinary Symbol and Literal Cross Reference                                     Page   24            


Symbol   Length   Value     Id    R Type Asm  Program   Defn References                     HLASM R6.0  2023/12/06 00.29            

=PL1'0'       1 00000659 00000001     P                  671  465                                                                   
=PL1'1'       1 0000061F 00000001     P                  667  191   274   353   468   482   490   570                               
=PL8'500000000'                                                                                                                     
              8 000005E0 00000001     P                  660  214                                                                   
=X'402020206B2020206B2021204B2020'                                                                                                  
             15 00000620 00000001     X                  668  197   242   253   264                                                 
=X'4020206B2020206B2020206B2021204B20202020'                                                                                        
             20 000005E8 00000001     X                  661  209                                                                   
=X'40202120'                                                                                                                        
              4 00000600 00000001     X                  663  275   354   491   571                                                 
=X'40202120206120206120202020'                                                                                                      
             13 00000604 00000001     X                  664   78                                                                   
=X'402021204B2020'                                                                                                                  
              7 00000618 00000001     X                  666  167                                                                   
=X'402120207A2020'                                                                                                                  
              7 00000611 00000001     X                  665   82                                                                   
=13C' '       1 00000677 00000001     C                  673  505                                                                   
=9C' '        1 000006A5 00000001     C                  675  584                                                                   

                                  Unreferenced Symbols Defined in CSECTs                                       Page   25            


  Defn  Symbol                                                                              HLASM R6.0  2023/12/06 00.29            

   695  PCOMMAMT                                                                                                                    
   693  PSHRAMT                                                                                                                     

                                          Macro and Copy Code Source Summary                                   Page   26            


 Con Source                                        Volume    Members                        HLASM R6.0  2023/12/06 00.29            

  L1 SYS1.MACLIB                                   VTMVSC    ABEND    CLOSE    DCB      GET      IHBINNRA IHBINNRR                  
                                                             IHB01    OPEN     PUT      SYSSTATE TIME                               

                                                Dsect Cross Reference                                          Page   27            


Dsect     Length      Id       Defn                                                         HLASM R6.0  2023/12/06 00.29            

$FUNDREC 0000003A  FFFFFFFF      24                                                                                                 
$SALEREC 0000003C  FFFFFFFE      31                                                                                                 

                                                      Using Map                                                Page   28            


                                                                                            HLASM R6.0  2023/12/06 00.29            
  Stmt  -----Location----- Action ----------------Using----------------- Reg Max     Last Label and Using Text                      
          Count      Id           Type          Value    Range     Id        Disp    Stmt                                           

    43  00000006  00000001 USING  ORDINARY    00000000 00001000 00000001  12 00FEC    888 SALESRPT,12                               
    51  0000001C  00000001 USING  ORDINARY    00001000 00001000 00000001  11 000AC    981 SALESRPT+4096,11                          
   159  000000FE  00000001 USING  ORDINARY    00000000 00001000 FFFFFFFF   3 00034    165 $FUNDREC,3                                
   172  00000132  00000001 DROP                                            3              3                                         
   175  00000136  00000001 USING  ORDINARY    00000000 00001000 FFFFFFFE   3 0003B    230 $SALEREC,3                                
   351  0000032C  00000001 DROP                                            3              3                                         

                                   General Purpose Register Cross Reference                                    Page   29            


 Register  References (M=modified, B=branch, U=USING, D=DROP, N=index)                      HLASM R6.0  2023/12/06 00.29            

    0(0)      41   100M  101M  102   120M  121M  122   140M  141M  142   150M  225M  362M  460M  461M  462   474M  564M             
             652M                                                                                                                   
    1(1)      41    57M   58M   68    69    75    88M   99M  102M  108M  119M  122M  128M  139M  142M  149M  152   155              
             166M  168M  169M  170   180M  182   189   190   196M  198M  199M  200   224M  227   241M  243M  244M  245              
             252M  254M  255M  256   263M  265M  266M  267   282M  284   286   292M  294   296   302M  304   306   312M             
             314   316   322M  324   326   334M  336   338   345M  347   361M  364   366   375M  377   379   385M  387              
             389   395M  397   399   405M  407   409   413M  414M  415M  416   420M  421M  422M  423   429M  431   433              
             438M  448M  459M  462M  473M  476   498M  500   502   510M  512   514   520M  522   524   530M  532   534              
             540M  542   544   552M  554   556   563M  566   578M  580   582   590M  592   594   600M  602   604   610M             
             612   614   620M  622   624   633M  635   637   642M  652M                                                             
    2(2)      41   173M  271   328M  328   339M  339   467M  486   546M  546   557M  557   652M                                     
    3(3)      41    73M  155M  159U  172D  175U  189M  351D  652M                                                                   
    4(4)      41    73M  652M                                                                                                       
    5(5)      41   652M                                                                                                             
    6(6)      41   652M                                                                                                             
    7(7)      41   652M                                                                                                             
    8(8)      41   652M                                                                                                             
    9(9)      41   652M                                                                                                             
   10(A)      41   652M                                                                                                             
   11(B)      41    49M   50M   50    51U  652M                                                                                     
   12(C)      41    42M   43U   49   652M                                                                                           
   13(D)      41    45    47M  650M  650   651   652                                                                                
   14(E)      41    44M   45    46    46    47    70M   71M   71N   72M   72N   73    73M   74M   75   153M  183M  228M             
             285M  295M  305M  315M  325M  337M  348M  365M  378M  388M  398M  408M  432M  477M  501M  513M  523M  533M             
             543M  555M  567M  581M  593M  603M  613M  623M  636M  651M  654B  889B  982B                                           
   15(F)      41    42    92M   92   112M  112   132M  132   151M  151   152M  153B  181M  181   182M  183B  226M  226              
             227M  228B  283M  283   284M  285B  293M  293   294M  295B  303M  303   304M  305B  313M  313   314M  315B             
             323M  323   324M  325B  335M  335   336M  337B  346M  346   347M  348B  363M  363   364M  365B  376M  376              
             377M  378B  386M  386   387M  388B  396M  396   397M  398B  406M  406   407M  408B  430M  430   431M  432B             
             452M  452   475M  475   476M  477B  499M  499   500M  501B  511M  511   512M  513B  521M  521   522M  523B             
             531M  531   532M  533B  541M  541   542M  543B  553M  553   554M  555B  565M  565   566M  567B  579M  579              
             580M  581B  591M  591   592M  593B  601M  601   602M  603B  611M  611   612M  613B  621M  621   622M  623B             
             634M  634   635M  636B  649M  649                                                                                      

                                  Diagnostic Cross Reference and Assembler Summary                             Page   30            


                                                                                            HLASM R6.0  2023/12/06 00.29            

     No Statements Flagged in this Assembly                                                                                         
HIGH LEVEL ASSEMBLER, 5696-234, RELEASE 6.0, PTF UI90738                                                                            

SYSTEM: z/OS 02.05.00              JOBNAME: KC03C60A    STEPNAME: JSTEP01    PROCSTEP: (NOPROC)                                     

Unicode Module:   ASMA047C   From Page     1148   To Page    17584           ECECP: International 1                                 
Data Sets Allocated for this Assembly                                                                                               
 Con DDname   Data Set Name                                Volume  Member                                                           
  P1 SYSIN    KC03C60.KC03C60A.JOB08827.D0000101.?                                                                                  
  L1 SYSLIB   SYS1.MACLIB                                  VTMVSC                                                                   
     SYSLIN   SYS23340.T002918.RA000.KC03C60A.OBJMOD.H01   KCTR01                                                                   
     SYSPRINT KC03C60.KC03C60A.JOB08827.D0000103.?                                                                                  
                                                                                                                                    
  26728K allocated to Buffer Pool       Storage required     624K                                                                   
    550 Primary Input Records Read         4292 Library Records Read                  0 Work File Reads                             
      0 ASMAOPT Records Read               1230 Primary Print Records Written         0 Work File Writes                            
     84 Object Records Written                0 ADATA Records Written                                                               

Assembly Start Time: 00.29.21 Stop Time: 00.29.21 Processor Time: 01.11.34.9672                                                     
Return Code 000                                                                                                                     

z/OS V2 R5 BINDER     00:29:22 WEDNESDAY DECEMBER  6, 2023                                                              
BATCH EMULATOR  JOB(KC03C60A) STEP(JSTEP02 ) PGM= IEWBLINK                                                              
IEW2322I 1220  1      ENTRY SALESRPT                                                                                    
IEW2322I 1220  2      MODE AMODE(24)                                                                                    
                                                                                                                        
                                                                                                                        
                                                                                                                        
                                *** O P E R A T I O N   S U M M A R Y   R E P O R T ***                                 
                                                                                                                        

PROCESSING OPTIONS:                                                                                                     
                                                                                                                        
   ALIASES             NO                                                                                               
   ALIGN2              NO                                                                                               
   AMODE                24                                                                                              
   CALL                YES                                                                                              
   CASE                UPPER                                                                                            
   COMPAT              UNSPECIFIED                                                                                      
   COMPRESS            AUTO                                                                                             
   DCBS                NO                                                                                               
   DYNAM               NO                                                                                               
   EXTATTR             UNSPECIFIED                                                                                      
   EXITS:              NONE                                                                                             
   FILL                NONE                                                                                             
   GID                 UNSPECIFIED                                                                                      
   HOBSET              NO                                                                                               
   INFO                NO                                                                                               
   LET                 04                                                                                               
   LINECT              060                                                                                              
   LIST                SUMMARY                                                                                          
   LISTPRIV            NO                                                                                               
   LONGPARM            NO                                                                                               
   MAP                 NO                                                                                               
   MAXBLK              032760                                                                                           
   MODMAP              NO                                                                                               
   MSGLEVEL            00                                                                                               
   OVLY                NO                                                                                               
   PRINT               YES                                                                                              
   RES                 NO                                                                                               
   REUSABILITY         UNSPECIFIED                                                                                      
   RMODE               UNSPECIFIED                                                                                      
   RMODEX              NO                                                                                               
   SIGN                NO                                                                                               
   STORENX             NOREPLACE                                                                                        
   STRIPCL             NO                                                                                               
   STRIPSEC            NO                                                                                               
   SYMTRACE                                                                                                             
   TERM                NO                                                                                               
   TRAP                ON                                                                                               
   UID                 UNSPECIFIED                                                                                      
   UPCASE              NO                                                                                               
   WKSPACE             000000K,000000K                                                                                  
   XCAL                NO                                                                                               
   XREF                NO                                                                                               
   ***END OF OPTIONS***                                                                                                 
                                                                                                                        
                                                                                                                        
                                                                                                                        
                                                                                                                        

SAVE OPERATION SUMMARY:                                                                                                 
                                                                                                                        
   MEMBER NAME         SALESRPT                                                                                         
   LOAD LIBRARY        KC03C60.CSCI465.LOADLIB                                                                          
   PROGRAM TYPE        PROGRAM OBJECT(FORMAT 2)                                                                         
   VOLUME SERIAL       KCTR03                                                                                           
   DISPOSITION         REPLACED                                                                                         
   TIME OF SAVE        00.29.23  DEC  6, 2023                                                                           
                                                                                                                        
                                                                                                                        

SAVE MODULE ATTRIBUTES:                                                                                                 
                                                                                                                        
   AC                  000                                                                                              
   AMODE                24                                                                                              
   COMPRESSION         NONE                                                                                             
   DC                  NO                                                                                               
   EDITABLE            YES                                                                                              
   EXCEEDS 16MB        NO                                                                                               
   EXECUTABLE          YES                                                                                              
   LONGPARM            NO                                                                                               
   MIGRATABLE          YES                                                                                              
   OL                  NO                                                                                               
   OVLY                NO                                                                                               
   PACK,PRIME          NO,NO                                                                                            
   PAGE ALIGN          NO                                                                                               
   REFR                NO                                                                                               
   RENT                NO                                                                                               
   REUS                NO                                                                                               
   RMODE                24                                                                                              
   SCTR                NO                                                                                               
   SIGN                NO                                                                                               
   SSI                                                                                                                  
   SYM GENERATED       NO                                                                                               
   TEST                NO                                                                                               
   XPLINK              NO                                                                                               
   MODULE SIZE (HEX)   000010B8                                                                                         
   DASD SIZE (HEX)     00002000                                                                                         
                                                                                                                        
                                                                                                                        

 ENTRY POINT AND ALIAS SUMMARY:                                                                                         
                                                                                                                        
 NAME:            ENTRY TYPE AMODE C_OFFSET CLASS NAME        STATUS                                                    
                                                                                                                        
 SALESRPT          MAIN_EP      24 00000000 B_TEXT                                                                      
                                                                                                                        
                         *** E N D   O F   O P E R A T I O N   S U M M A R Y   R E P O R T ***                          
                                                                                                                        
                                                                                                                        
                                                                                                                        
                                                                                                                        

z/OS V2 R5 BINDER     00:29:22 WEDNESDAY DECEMBER  6, 2023                                                              
BATCH EMULATOR  JOB(KC03C60A) STEP(JSTEP02 ) PGM= IEWBLINK                                                              
IEW2008I 0F03 PROCESSING COMPLETED.  RETURN CODE =  0.                                                                  
                                                                                                                        
                                                                                                                        
                                                                                                                        

----------------------                                                                                                  
MESSAGE SUMMARY REPORT                                                                                                  
----------------------                                                                                                  
 TERMINAL MESSAGES      (SEVERITY = 16)                                                                                 
 NONE                                                                                                                   
                                                                                                                        
 SEVERE MESSAGES        (SEVERITY = 12)                                                                                 
 NONE                                                                                                                   
                                                                                                                        
 ERROR MESSAGES         (SEVERITY = 08)                                                                                 
 NONE                                                                                                                   
                                                                                                                        
 WARNING MESSAGES       (SEVERITY = 04)                                                                                 
 NONE                                                                                                                   
                                                                                                                        
 INFORMATIONAL MESSAGES (SEVERITY = 00)                                                                                 
 2008  2322                                                                                                             
                                                                                                                        
                                                                                                                        
 **** END OF MESSAGE SUMMARY REPORT ****                                                                                
                                                                                                                        

12/06/2023                                        WASHINGTON & LINCOLN INVESTMENTS                                        PAGE:    1
02:92                                             BROKER SALES AND COMISSION REPORT                                                 

                                                       SHARE PRICE:   $9.35                                                         

BRANCH NAME                      BROKER NAME                       DEPOSIT AMOUNT               SHARE AMOUNT              COMMISSION

--------------------             -------------------------         --------------         ------------------          --------------

Athens, Greece                   George Schipodokas                     $1,124.71                   120.2900                  $0.910

Athens, Greece                   Boodra Makedonas                       $3,704.71                   396.2260                  $4.890

Athens, Greece                   Aristotle Onassis                     $14,173.13                 1,515.8430                 $11.480

Athens, Greece                   Maria Callas                          $15,401.52                 1,647.2210                 $12.480

Athens, Greece                   Kostas Dalaras                         $7,740.68                   827.8800                  $6.270

Athens, Greece                   Peter Bogdonas                         $2,334.72                   249.7030                  $3.080

Berlin, Germany                  Erich Kleiber                         $93,618.48                10,012.6720                 $75.830

Berlin, Germany                  Wilhelm Furtwaengler                 $716,614.94                76,643.3090                $580.460

Berlin, Germany                  Adolph Dege                           $80,821.35                 8,643.9950                $106.680

Berlin, Germany                  Johannes Klopp                       $400,870.20                42,873.8180                $324.700

Berlin, Germany                  Eugen Jochum                       $9,999,999.99             1,069,518.7160              $5,200.000

Bonn, Germany                    Ludwig van Beethoven                   $4,061.21                   434.3540                  $5.360

Bonn, Germany                    Uwe Schmidt                          $207,430.39                22,185.0680                $273.810

Bonn, Germany                    Helga Dernesch                           $841.52                    90.0020                  $1.110

Bonn, Germany                    Richard Strauss                      $310,814.02                33,242.1410                $410.270

Chicago, U.S.                    Maurizio Damilano                  $4,000,081.02               427,816.1520              $2,080.040

Chicago, U.S.                    Chi Yen Weh                          $431,081.00                46,104.9200                $349.180

Chicago, U.S.                    Steve Peplowski                      $241,001.21                25,775.5300                $318.120

12/06/2023                                        WASHINGTON & LINCOLN INVESTMENTS                                        PAGE:    2
02:92                                             BROKER SALES AND COMISSION REPORT                                                 

                                                       SHARE PRICE:   $9.35                                                         

BRANCH NAME                      BROKER NAME                       DEPOSIT AMOUNT               SHARE AMOUNT              COMMISSION

--------------------             -------------------------         --------------         ------------------          --------------

Chicago, U.S.                    Michael Smith                        $314,081.22                33,591.5740                $254.410

Chicago, U.S.                    Charles Medley                       $310,481.23                33,206.5490                $251.490

Chicago, U.S.                    Risa Rogan                           $310,841.24                33,245.0520                $410.310

Chicago, U.S.                    Theodore Thomas                      $310,814.25                33,242.1660                $251.760

Chicago, U.S.                    Frederick Stock                      $310,812.46                33,241.9740                $251.760

Dublin, Ireland                  Billy O'Leary                        $310,821.42                33,242.9330                $410.280

Dublin, Ireland                  Anna Owen                            $331,083.14                35,409.9610                $437.030

Belfast, N. Ireland              Chet Manassas                         $51,223.41                 5,478.4400                 $67.610

Belfast, N. Ireland              Shelley Mann                         $330,000.52                35,294.1730                $435.600

Belfast, N. Ireland              Philip Battenberg                      $3,111.60                   332.7910                  $4.110

Edinburgh, U.K.                  Billy Connolly                       $310,381.72                33,195.9060                $409.700

Edinburgh, U.K.                  Omar Sharif                          $310,831.12                33,243.9700                $410.300

Edinburgh, U.K.                  Julie Christie                       $310,813.12                33,242.0450                $410.270

Edinburgh, U.K.                  James Oxfordshire                    $310,811.32                33,241.8520                $410.270

Frankfurt, Germany               Johannes Dundor                      $460,641.05                49,266.4220                $608.050

Frankfurt, Germany               Gretel Decker                        $180,764.08                19,333.0570                $238.610

Frankfurt, Germany               Adam Dieffenbach                     $606,825.41                64,901.1130                $491.530

Hong Kong, China                 Mao Zedong                           $608,627.12                65,093.8100                $492.990

12/06/2023                                        WASHINGTON & LINCOLN INVESTMENTS                                        PAGE:    3
02:92                                             BROKER SALES AND COMISSION REPORT                                                 

                                                       SHARE PRICE:   $9.35                                                         

BRANCH NAME                      BROKER NAME                       DEPOSIT AMOUNT               SHARE AMOUNT              COMMISSION

--------------------             -------------------------         --------------         ------------------          --------------

Hong Kong, China                 Zhou Enlai                           $608,266.12                65,055.2000                $492.700

Hong Kong, China                 Zhau Ziyang                          $698,276.12                74,681.9380                $921.720

Hong Kong, China                 Chiang Kai-shek                    $2,618,281.62               280,030.1200              $2,120.810

Hong Kong, China                 Gau-Yin Lau                           $60,829.12                 6,505.7880                 $80.290

Hong Kong, China                 Stephanie Buckingham                 $460,821.23                49,285.6930                $373.270

Hong Kong, China                 Simon Draper                         $640,821.23                68,537.0300                $845.880

London, U.K.                     Elizabeth Windsor                    $714,492.35                76,416.2940                $943.130

London, U.K.                     Charles Windsor                      $217,916.20                23,306.5450                $176.510

London, U.K.                     Andrew Windsor                       $661,102.24                70,706.1220                $535.490

London, U.K.                     Michael Windsor                    $1,066,362.25               114,049.4390                $863.750

London, U.K.                     Phillip Windsor                      $116,641.61                12,475.0390                $153.970

London, U.K.                     William Windsor                      $221,661.72                23,707.1360                $292.590

Los Angeles, U.S.                William Mills                        $111,966.78                11,975.0570                $147.800

Los Angeles, U.S.                Catherine Monteiro                 $9,999,999.99             1,069,518.7160             $13,200.000

Los Angeles, U.S.                Jason Landau                         $500,000.78                53,476.0190                $660.000

Los Angeles, U.S.                Trevor Pinnicle                      $150,000.00                16,042.7810                $198.000

Kyiv, Ukraine                    Yvgeny Yevtushenko                   $135,191.78                14,459.0140                $178.450

Kyiv, Ukraine                    Vladimir Ashkenazy                   $111,591.78                11,934.9500                 $90.390

12/06/2023                                        WASHINGTON & LINCOLN INVESTMENTS                                        PAGE:    4
02:92                                             BROKER SALES AND COMISSION REPORT                                                 

                                                       SHARE PRICE:   $9.35                                                         

BRANCH NAME                      BROKER NAME                       DEPOSIT AMOUNT               SHARE AMOUNT              COMMISSION

--------------------             -------------------------         --------------         ------------------          --------------

Kyiv, Ukraine                    Serge Rachmaninov                     $11,951.78                 1,278.2650                 $15.780

Kyiv, Ukraine                    Leo Tolstoy                          $101,915.77                10,900.0820                $134.530

Kyiv, Ukraine                    Fyodor Dostoevsky                     $11,333.63                 1,212.1530                  $9.180

Kyiv, Ukraine                    Dmitri Shostakovich                  $181,194.74                19,379.1170                $146.770

New York, U.S.                   Gary Graffman                        $118,191.78                12,640.8320                 $95.740

New York, U.S.                   Andre Previn                         $232,821.78                24,900.7250                $188.590

New York, U.S.                   Samuel Jefferson                      $99,989.99                10,694.1170                $131.990

New York, U.S.                   John Adams                           $111,978.78                11,976.3400                 $58.230

New York, U.S.                   Cheryl Studer                        $301,491.78                32,245.1100                $397.970

New York, U.S.                   Renee Fleming                        $331,121.78                35,414.0940                $268.210

New York, U.S.                   Birgit Nilsson                        $33,194.48                 3,550.2120                 $43.820

New York, U.S.                   Christa Ludwig                       $113,391.74                12,127.4590                 $58.960

New York, U.S.                   James Conlon                          $99,939.99                10,688.7690                $131.920

New York, U.S.                   Leonard Bernstein                    $111,913.78                11,969.3880                 $90.650

Paris, France                    Napoleon Bonaparte                 $1,007,309.30               107,733.6150              $1,329.650

Paris, France                    Claude Monet                       $3,001,251.86               320,989.5040              $3,961.650

Paris, France                    Olivier Messiaen                     $300,141.60                32,100.7060                $156.070

Paris, France                    Claude Debussy                       $930,781.55                99,548.8290                $484.010

12/06/2023                                        WASHINGTON & LINCOLN INVESTMENTS                                        PAGE:    5
02:92                                             BROKER SALES AND COMISSION REPORT                                                 

                                                       SHARE PRICE:   $9.35                                                         

BRANCH NAME                      BROKER NAME                       DEPOSIT AMOUNT               SHARE AMOUNT              COMMISSION

--------------------             -------------------------         --------------         ------------------          --------------

Paris, France                    Maurice Ravel                      $1,003,012.22               107,274.0340                $812.440

Paris, France                    Edith Piaf                           $263,340.33                28,164.7410                $213.310

Paris, France                    Coco Chanel                          $226,130.54                24,185.0840                $298.490

Sao Paulo, Brazil                Joao Castagneto                        $3,103.55                   331.9300                  $4.100

Sao Paulo, Brazil                Lasar Segall                           $6,105.37                   652.9810                  $3.170

Sao Paulo, Brazil                Tarsila do Amaral                    $300,010.58                32,086.6930                $396.010

Sao Paulo, Brazil                Eliseu Visconti                       $32,230.54                 3,447.1170                 $26.110

Rome, Italy                      Julius Caesar                        $203,410.65                21,755.1500                $268.500

Rome, Italy                      Franco Sinatra                         $4,310.55                   461.0210                  $5.690

Rome, Italy                      Giacomo Puccini                       $30,460.45                 3,257.8020                 $40.210

Rome, Italy                      Enrico Caruso                         $88,413.35                 9,455.9730                $116.710

Rome, Italy                      Sofia Loren                          $900,415.25                96,301.0960              $1,188.550

Sydney, Australia                Milton Sheppard                       $90,460.65                 9,674.9360                 $73.270

Sydney, Australia                Shelley Boughton                       $9,810.58                 1,049.2600                  $7.950

Sydney, Australia                Joan Sutherland                        $2,910.55                   311.2890                  $3.840

Sydney, Australia                Barry Tuckwell                         $9,190.54                   982.9450                  $7.440

Sydney, Australia                Cayla Smithe                           $2,109.59                   225.6250                  $1.100

Sydney, Australia                Benjamin Britten                       $4,105.94                   439.1380                  $5.420

12/06/2023                                        WASHINGTON & LINCOLN INVESTMENTS                                        PAGE:    6
02:92                                             BROKER SALES AND COMISSION REPORT                                                 

                                                       SHARE PRICE:   $9.35                                                         

BRANCH NAME                      BROKER NAME                       DEPOSIT AMOUNT               SHARE AMOUNT              COMMISSION

--------------------             -------------------------         --------------         ------------------          --------------

Sydney, Australia                Peter Pears                            $4,930.56                   527.3330                  $2.560

Sydney, Australia                Paul Gray                             $90,310.45                 9,658.8720                $119.210

Vienna, Austria                  Herbert von Karajan                    $9,580.28                 1,024.6290                  $7.760

Vienna, Austria                  Franz Joseph Haydn                     $5,890.30                   629.9790                  $4.770

Vienna, Austria                  Josef Strauss                         $15,809.48                 1,690.8530                 $12.810

Vienna, Austria                  Karl Boehm                           $505,808.96                54,097.2150                $409.710

Vienna, Austria                  Elisabeth Schwarzkopf                 $12,480.29                 1,334.7900                 $10.110

Vienna, Austria                  Franz Peter Schubert                   $9,831.05                 1,051.4490                  $7.960

Zurich, Switzerland              Earl Grey                            $400,058.01                42,786.9530                $528.080

Zurich, Switzerland              Diana Kensington                      $87,057.55                 9,310.9680                $114.920

Zurich, Switzerland              Axel Vondenberg                       $30,759.01                 3,289.7340                 $15.990

Zurich, Switzerland              Ute Schweitzer                       $147,058.00                15,728.1280                $194.120

Zurich, Switzerland              Rene Jacobs                           $72,558.00                 7,760.2140                 $58.770

Zurich, Switzerland              Anton Bruckner                        $99,999.99                10,695.1860                 $52.000

12/06/2023                                        WASHINGTON & LINCOLN INVESTMENTS                                        PAGE:    7
02:92                                             BROKER SALES AND COMMISSIONS REPORT TOTALS                                        

                                                       SHARE PRICE:   $9.35                                                         

                                       NUMBER OF SALES         TOTAL SALES AMOUNT         TOTAL SHARE AMOUNT        TOTAL COMMISSION
                                       ---------------         ------------------     ----------------------      ------------------

                                                   104             $53,080,482.42             5,677,056.9440              $51,000.30

12/06/2023                                        WASHINGTON & LINCOLN INVESTMENTS                                        PAGE:    2
02:92                                                 BROKER LARGE SALES REPORT                                                     

                                                       SHARE PRICE:   $9.35                                                         

                                        HIGH SALES BROKER NAME          HIGH SALES SHARE AMOUNT                                     
                                     -------------------------          -----------------------                                     

                                     Wilhelm Furtwaengler                           76,643.3090                                     

                                     Eugen Jochum                                                                                   

                                     Maurizio Damilano                                                                              

                                     Adam Dieffenbach                                                                               

                                     Mao Zedong                                                                                     

                                     Zhou Enlai                                                                                     

                                     Zhau Ziyang                                                                                    

                                     Chiang Kai-shek                                                                                

                                     Simon Draper                                                                                   

                                     Elizabeth Windsor                                                                              

                                     Andrew Windsor                                                                                 

                                     Michael Windsor                                                                                

                                     Catherine Monteiro                                                                             

                                     Jason Landau                                                                                   

                                     Napoleon Bonaparte                                                                             

                                     Claude Monet                                                                                   

                                     Claude Debussy                                                                                 

                                     Maurice Ravel                                                                                  

12/06/2023                                        WASHINGTON & LINCOLN INVESTMENTS                                        PAGE:    3
02:92                                                 BROKER LARGE SALES REPORT                                                     

                                                       SHARE PRICE:   $9.35                                                         

                                        HIGH SALES BROKER NAME          HIGH SALES SHARE AMOUNT                                     
                                     -------------------------          -----------------------                                     

                                     Sofia Loren                                                                                    

                                     Karl Boehm                                                                                     

12/06/2023                                        WASHINGTON & LINCOLN INVESTMENTS                                        PAGE:    4
02:92                                              BROKER LARGE SALES REPORT TOTALS                                                 

                                                       SHARE PRICE:   $9.35                                                         

                                  NUMBER OF HIGH SALES BROKERS                                                                      
                                  ----------------------------    -----------------------------                                     

                                                            20                   4,362,388.2710                                     

